---
triple:          'x86_64-apple-darwin'
binary-path:     parser
relocations:
  - { offsetInCU: 0x3F, offset: 0x3F, size: 0x8, addend: 0x0, symName: _errorsFile, symObjAddr: 0xD5680, symBinAddr: 0x100023008, symSize: 0x0 }
  - { offsetInCU: 0x260, offset: 0x260, size: 0x8, addend: 0x0, symName: _warningsFile, symObjAddr: 0xD5688, symBinAddr: 0x100023010, symSize: 0x0 }
  - { offsetInCU: 0x275, offset: 0x275, size: 0x8, addend: 0x0, symName: _OutputQuadraplesFile, symObjAddr: 0xD5690, symBinAddr: 0x100023018, symSize: 0x0 }
  - { offsetInCU: 0x28A, offset: 0x28A, size: 0x8, addend: 0x0, symName: _Labels, symObjAddr: 0xD5698, symBinAddr: 0x100023020, symSize: 0x0 }
  - { offsetInCU: 0x29F, offset: 0x29F, size: 0x8, addend: 0x0, symName: _CaseLabels, symObjAddr: 0xD569C, symBinAddr: 0x100023024, symSize: 0x0 }
  - { offsetInCU: 0x2B4, offset: 0x2B4, size: 0x8, addend: 0x0, symName: _EndSwitchLabel, symObjAddr: 0xD56A0, symBinAddr: 0x100023028, symSize: 0x0 }
  - { offsetInCU: 0x2C9, offset: 0x2C9, size: 0x8, addend: 0x0, symName: _EnumValue, symObjAddr: 0xD56A4, symBinAddr: 0x10002302C, symSize: 0x0 }
  - { offsetInCU: 0x2DE, offset: 0x2DE, size: 0x8, addend: 0x0, symName: _TempVariables, symObjAddr: 0xD56A8, symBinAddr: 0x100023030, symSize: 0x0 }
  - { offsetInCU: 0x2F3, offset: 0x2F3, size: 0x8, addend: 0x0, symName: _st, symObjAddr: 0xD56B0, symBinAddr: 0x100023038, symSize: 0x0 }
  - { offsetInCU: 0x1544D, offset: 0x1544D, size: 0x8, addend: 0x0, symName: __ZNSt3__1L19piecewise_constructE, symObjAddr: 0x11F5B, symBinAddr: 0x10002084B, symSize: 0x0 }
  - { offsetInCU: 0x16DDB, offset: 0x16DDB, size: 0x8, addend: 0x0, symName: __ZNSt3__1neB8ue170006ERKNS_19__hash_map_iteratorINS_15__hash_iteratorIPNS_11__hash_nodeINS_17__hash_value_typeINS_12basic_stringIcNS_11char_traitsIcEENS_9allocatorIcEEEEP4NodeEEPvEEEEEESJ_, symObjAddr: 0x4960, symBinAddr: 0x100005C90, symSize: 0x30 }
  - { offsetInCU: 0x16E18, offset: 0x16E18, size: 0x8, addend: 0x0, symName: __ZNSt3__1eqB8ue170006IcNS_11char_traitsIcEENS_9allocatorIcEEEEbRKNS_12basic_stringIT_T0_T1_EEPKS6_, symObjAddr: 0x5CD0, symBinAddr: 0x100007000, symSize: 0x90 }
  - { offsetInCU: 0x16E7F, offset: 0x16E7F, size: 0x8, addend: 0x0, symName: __ZNSt3__112__to_addressB8ue170006IKcEEPT_S3_, symObjAddr: 0x76E0, symBinAddr: 0x100008A10, symSize: 0x10 }
  - { offsetInCU: 0x16EE7, offset: 0x16EE7, size: 0x8, addend: 0x0, symName: __ZNSt3__112__to_addressB8ue170006I8typeEnumEEPT_S3_, symObjAddr: 0x7A30, symBinAddr: 0x100008D60, symSize: 0x10 }
  - { offsetInCU: 0x16F1C, offset: 0x16F1C, size: 0x8, addend: 0x0, symName: __ZNSt3__13maxB8ue170006ImEERKT_S3_S3_, symObjAddr: 0x7DE0, symBinAddr: 0x100009110, symSize: 0x30 }
  - { offsetInCU: 0x16F5F, offset: 0x16F5F, size: 0x8, addend: 0x0, symName: __ZNSt3__13minB8ue170006ImEERKT_S3_S3_, symObjAddr: 0x7E10, symBinAddr: 0x100009140, symSize: 0x30 }
  - { offsetInCU: 0x171A3, offset: 0x171A3, size: 0x8, addend: 0x0, symName: __ZNSt3__13minB8ue170006ImNS_6__lessIvvEEEERKT_S5_S5_T0_, symObjAddr: 0x7E90, symBinAddr: 0x1000091C0, symSize: 0x50 }
  - { offsetInCU: 0x17242, offset: 0x17242, size: 0x8, addend: 0x0, symName: __ZNSt3__120__throw_length_errorB8ue170006EPKc, symObjAddr: 0x7F70, symBinAddr: 0x1000092A0, symSize: 0x70 }
  - { offsetInCU: 0x1726C, offset: 0x1726C, size: 0x8, addend: 0x0, symName: __ZNSt3__13maxB8ue170006ImNS_6__lessIvvEEEERKT_S5_S5_T0_, symObjAddr: 0x80A0, symBinAddr: 0x1000093D0, symSize: 0x50 }
  - { offsetInCU: 0x172C6, offset: 0x172C6, size: 0x8, addend: 0x0, symName: __ZNSt3__119__allocate_at_leastB8ue170006INS_9allocatorI8typeEnumEEEENS_19__allocation_resultINS_16allocator_traitsIT_E7pointerEEERS6_m, symObjAddr: 0x81F0, symBinAddr: 0x100009520, symSize: 0x40 }
  - { offsetInCU: 0x17309, offset: 0x17309, size: 0x8, addend: 0x0, symName: __ZNSt3__117__libcpp_allocateB8ue170006Emm, symObjAddr: 0x8380, symBinAddr: 0x1000096B0, symSize: 0x20 }
  - { offsetInCU: 0x17346, offset: 0x17346, size: 0x8, addend: 0x0, symName: __ZNSt3__121__libcpp_operator_newB8ue170006IJmEEEPvDpT_, symObjAddr: 0x83A0, symBinAddr: 0x1000096D0, symSize: 0x20 }
  - { offsetInCU: 0x1737F, offset: 0x1737F, size: 0x8, addend: 0x0, symName: __ZNSt3__142__uninitialized_allocator_move_if_noexceptB8ue170006INS_9allocatorI8typeEnumEENS_16reverse_iteratorIPS2_EES6_S2_vEET1_RT_T0_SA_S7_, symObjAddr: 0x84D0, symBinAddr: 0x100009800, symSize: 0x70 }
  - { offsetInCU: 0x173FB, offset: 0x173FB, size: 0x8, addend: 0x0, symName: __ZNSt3__14swapB8ue170006IP8typeEnumEENS_9enable_ifIXaasr21is_move_constructibleIT_EE5valuesr18is_move_assignableIS4_EE5valueEvE4typeERS4_S7_, symObjAddr: 0x8590, symBinAddr: 0x1000098C0, symSize: 0x40 }
  - { offsetInCU: 0x1744C, offset: 0x1744C, size: 0x8, addend: 0x0, symName: __ZNSt3__14moveB8ue170006INS_16reverse_iteratorIP8typeEnumEES4_EET0_T_S6_S5_, symObjAddr: 0x86C0, symBinAddr: 0x1000099F0, symSize: 0x80 }
  - { offsetInCU: 0x174A6, offset: 0x174A6, size: 0x8, addend: 0x0, symName: __ZNSt3__16__moveB8ue170006INS_17_ClassicAlgPolicyENS_16reverse_iteratorIP8typeEnumEES5_S5_EENS_4pairIT0_T2_EES7_T1_S8_, symObjAddr: 0x8740, symBinAddr: 0x100009A70, symSize: 0x90 }
  - { offsetInCU: 0x17512, offset: 0x17512, size: 0x8, addend: 0x0, symName: __ZNSt3__123__dispatch_copy_or_moveB8ue170006INS_17_ClassicAlgPolicyENS_11__move_loopIS1_EENS_14__move_trivialENS_16reverse_iteratorIP8typeEnumEES8_S8_EENS_4pairIT2_T4_EESA_T3_SB_, symObjAddr: 0x87D0, symBinAddr: 0x100009B00, symSize: 0x90 }
  - { offsetInCU: 0x17590, offset: 0x17590, size: 0x8, addend: 0x0, symName: __ZNSt3__121__unwrap_and_dispatchB8ue170006INS_10__overloadINS_11__move_loopINS_17_ClassicAlgPolicyEEENS_14__move_trivialEEENS_16reverse_iteratorIP8typeEnumEESA_SA_Li0EEENS_4pairIT0_T2_EESC_T1_SD_, symObjAddr: 0x8860, symBinAddr: 0x100009B90, symSize: 0x210 }
  - { offsetInCU: 0x1761F, offset: 0x1761F, size: 0x8, addend: 0x0, symName: __ZNSt3__114__unwrap_rangeB8ue170006INS_16reverse_iteratorIP8typeEnumEES4_EENS_4pairIT0_S6_EET_S8_, symObjAddr: 0x8A70, symBinAddr: 0x100009DA0, symSize: 0x90 }
  - { offsetInCU: 0x17818, offset: 0x17818, size: 0x8, addend: 0x0, symName: __ZNSt3__113__unwrap_iterB8ue170006INS_16reverse_iteratorIP8typeEnumEENS_18__unwrap_iter_implIS4_Lb0EEELi0EEEDTclsrT0_8__unwrapclsr3stdE7declvalIT_EEEES8_, symObjAddr: 0x8BA0, symBinAddr: 0x100009ED0, symSize: 0x40 }
  - { offsetInCU: 0x1785C, offset: 0x1785C, size: 0x8, addend: 0x0, symName: __ZNSt3__19make_pairB8ue170006INS_16reverse_iteratorIP8typeEnumEES4_EENS_4pairINS_18__unwrap_ref_decayIT_E4typeENS6_IT0_E4typeEEEOS7_OSA_, symObjAddr: 0x8BE0, symBinAddr: 0x100009F10, symSize: 0x30 }
  - { offsetInCU: 0x178AB, offset: 0x178AB, size: 0x8, addend: 0x0, symName: __ZNSt3__114__rewrap_rangeB8ue170006INS_16reverse_iteratorIP8typeEnumEES4_EET_S5_T0_, symObjAddr: 0x8C10, symBinAddr: 0x100009F40, symSize: 0x60 }
  - { offsetInCU: 0x178F7, offset: 0x178F7, size: 0x8, addend: 0x0, symName: __ZNSt3__113__rewrap_iterB8ue170006INS_16reverse_iteratorIP8typeEnumEES4_NS_18__unwrap_iter_implIS4_Lb0EEEEET_S7_T0_, symObjAddr: 0x8C70, symBinAddr: 0x100009FA0, symSize: 0x70 }
  - { offsetInCU: 0x1794C, offset: 0x1794C, size: 0x8, addend: 0x0, symName: __ZNSt3__1neB8ue170006IP8typeEnumS2_EEbRKNS_16reverse_iteratorIT_EERKNS3_IT0_EE, symObjAddr: 0x8CE0, symBinAddr: 0x10000A010, symSize: 0x40 }
  - { offsetInCU: 0x17AB0, offset: 0x17AB0, size: 0x8, addend: 0x0, symName: __ZNSt3__119__libcpp_deallocateB8ue170006EPvmm, symObjAddr: 0x90B0, symBinAddr: 0x10000A3E0, symSize: 0x30 }
  - { offsetInCU: 0x17AF8, offset: 0x17AF8, size: 0x8, addend: 0x0, symName: __ZNSt3__127__do_deallocate_handle_sizeB8ue170006IJEEEvPvmDpT_, symObjAddr: 0x90E0, symBinAddr: 0x10000A410, symSize: 0x20 }
  - { offsetInCU: 0x17B36, offset: 0x17B36, size: 0x8, addend: 0x0, symName: __ZNSt3__124__libcpp_operator_deleteB8ue170006IJPvEEEvDpT_, symObjAddr: 0x9100, symBinAddr: 0x10000A430, symSize: 0x20 }
  - { offsetInCU: 0x17B6B, offset: 0x17B6B, size: 0x8, addend: 0x0, symName: __ZNSt3__112__to_addressB8ue170006IPcEEPT_S3_, symObjAddr: 0x9390, symBinAddr: 0x10000A6C0, symSize: 0x10 }
  - { offsetInCU: 0x17BA0, offset: 0x17BA0, size: 0x8, addend: 0x0, symName: __ZNSt3__119__allocate_at_leastB8ue170006INS_9allocatorIPcEEEENS_19__allocation_resultINS_16allocator_traitsIT_E7pointerEEERS6_m, symObjAddr: 0x9940, symBinAddr: 0x10000AC70, symSize: 0x40 }
  - { offsetInCU: 0x17BE3, offset: 0x17BE3, size: 0x8, addend: 0x0, symName: __ZNSt3__142__uninitialized_allocator_move_if_noexceptB8ue170006INS_9allocatorIPcEENS_16reverse_iteratorIPS2_EES6_S2_vEET1_RT_T0_SA_S7_, symObjAddr: 0x9BA0, symBinAddr: 0x10000AED0, symSize: 0x70 }
  - { offsetInCU: 0x17C5F, offset: 0x17C5F, size: 0x8, addend: 0x0, symName: __ZNSt3__14swapB8ue170006IPPcEENS_9enable_ifIXaasr21is_move_constructibleIT_EE5valuesr18is_move_assignableIS4_EE5valueEvE4typeERS4_S7_, symObjAddr: 0x9C60, symBinAddr: 0x10000AF90, symSize: 0x40 }
  - { offsetInCU: 0x17CB0, offset: 0x17CB0, size: 0x8, addend: 0x0, symName: __ZNSt3__14moveB8ue170006INS_16reverse_iteratorIPPcEES4_EET0_T_S6_S5_, symObjAddr: 0x9D90, symBinAddr: 0x10000B0C0, symSize: 0x80 }
  - { offsetInCU: 0x17D0A, offset: 0x17D0A, size: 0x8, addend: 0x0, symName: __ZNSt3__16__moveB8ue170006INS_17_ClassicAlgPolicyENS_16reverse_iteratorIPPcEES5_S5_EENS_4pairIT0_T2_EES7_T1_S8_, symObjAddr: 0x9E10, symBinAddr: 0x10000B140, symSize: 0x90 }
  - { offsetInCU: 0x17D76, offset: 0x17D76, size: 0x8, addend: 0x0, symName: __ZNSt3__123__dispatch_copy_or_moveB8ue170006INS_17_ClassicAlgPolicyENS_11__move_loopIS1_EENS_14__move_trivialENS_16reverse_iteratorIPPcEES8_S8_EENS_4pairIT2_T4_EESA_T3_SB_, symObjAddr: 0x9EA0, symBinAddr: 0x10000B1D0, symSize: 0x90 }
  - { offsetInCU: 0x17DF4, offset: 0x17DF4, size: 0x8, addend: 0x0, symName: __ZNSt3__121__unwrap_and_dispatchB8ue170006INS_10__overloadINS_11__move_loopINS_17_ClassicAlgPolicyEEENS_14__move_trivialEEENS_16reverse_iteratorIPPcEESA_SA_Li0EEENS_4pairIT0_T2_EESC_T1_SD_, symObjAddr: 0x9F30, symBinAddr: 0x10000B260, symSize: 0x210 }
  - { offsetInCU: 0x17E83, offset: 0x17E83, size: 0x8, addend: 0x0, symName: __ZNSt3__114__unwrap_rangeB8ue170006INS_16reverse_iteratorIPPcEES4_EENS_4pairIT0_S6_EET_S8_, symObjAddr: 0xA140, symBinAddr: 0x10000B470, symSize: 0x90 }
  - { offsetInCU: 0x17FA3, offset: 0x17FA3, size: 0x8, addend: 0x0, symName: __ZNSt3__113__unwrap_iterB8ue170006INS_16reverse_iteratorIPPcEENS_18__unwrap_iter_implIS4_Lb0EEELi0EEEDTclsrT0_8__unwrapclsr3stdE7declvalIT_EEEES8_, symObjAddr: 0xA270, symBinAddr: 0x10000B5A0, symSize: 0x40 }
  - { offsetInCU: 0x17FE7, offset: 0x17FE7, size: 0x8, addend: 0x0, symName: __ZNSt3__19make_pairB8ue170006INS_16reverse_iteratorIPPcEES4_EENS_4pairINS_18__unwrap_ref_decayIT_E4typeENS6_IT0_E4typeEEEOS7_OSA_, symObjAddr: 0xA2B0, symBinAddr: 0x10000B5E0, symSize: 0x30 }
  - { offsetInCU: 0x18036, offset: 0x18036, size: 0x8, addend: 0x0, symName: __ZNSt3__114__rewrap_rangeB8ue170006INS_16reverse_iteratorIPPcEES4_EET_S5_T0_, symObjAddr: 0xA2E0, symBinAddr: 0x10000B610, symSize: 0x60 }
  - { offsetInCU: 0x18082, offset: 0x18082, size: 0x8, addend: 0x0, symName: __ZNSt3__113__rewrap_iterB8ue170006INS_16reverse_iteratorIPPcEES4_NS_18__unwrap_iter_implIS4_Lb0EEEEET_S7_T0_, symObjAddr: 0xA340, symBinAddr: 0x10000B670, symSize: 0x70 }
  - { offsetInCU: 0x180D7, offset: 0x180D7, size: 0x8, addend: 0x0, symName: __ZNSt3__1neB8ue170006IPPcS2_EEbRKNS_16reverse_iteratorIT_EERKNS3_IT0_EE, symObjAddr: 0xA3B0, symBinAddr: 0x10000B6E0, symSize: 0x40 }
  - { offsetInCU: 0x1818F, offset: 0x1818F, size: 0x8, addend: 0x0, symName: __ZNSt3__112__to_addressB8ue170006IP11nodeTypeTagEEPT_S4_, symObjAddr: 0xA9F0, symBinAddr: 0x10000BD20, symSize: 0x10 }
  - { offsetInCU: 0x181C4, offset: 0x181C4, size: 0x8, addend: 0x0, symName: __ZNSt3__119__allocate_at_leastB8ue170006INS_9allocatorIP11nodeTypeTagEEEENS_19__allocation_resultINS_16allocator_traitsIT_E7pointerEEERS7_m, symObjAddr: 0xAF80, symBinAddr: 0x10000C2B0, symSize: 0x40 }
  - { offsetInCU: 0x18207, offset: 0x18207, size: 0x8, addend: 0x0, symName: __ZNSt3__142__uninitialized_allocator_move_if_noexceptB8ue170006INS_9allocatorIP11nodeTypeTagEENS_16reverse_iteratorIPS3_EES7_S3_vEET1_RT_T0_SB_S8_, symObjAddr: 0xB1E0, symBinAddr: 0x10000C510, symSize: 0x70 }
  - { offsetInCU: 0x18283, offset: 0x18283, size: 0x8, addend: 0x0, symName: __ZNSt3__14swapB8ue170006IPP11nodeTypeTagEENS_9enable_ifIXaasr21is_move_constructibleIT_EE5valuesr18is_move_assignableIS5_EE5valueEvE4typeERS5_S8_, symObjAddr: 0xB2A0, symBinAddr: 0x10000C5D0, symSize: 0x40 }
  - { offsetInCU: 0x182D4, offset: 0x182D4, size: 0x8, addend: 0x0, symName: __ZNSt3__14moveB8ue170006INS_16reverse_iteratorIPP11nodeTypeTagEES5_EET0_T_S7_S6_, symObjAddr: 0xB3D0, symBinAddr: 0x10000C700, symSize: 0x80 }
  - { offsetInCU: 0x1832E, offset: 0x1832E, size: 0x8, addend: 0x0, symName: __ZNSt3__16__moveB8ue170006INS_17_ClassicAlgPolicyENS_16reverse_iteratorIPP11nodeTypeTagEES6_S6_EENS_4pairIT0_T2_EES8_T1_S9_, symObjAddr: 0xB450, symBinAddr: 0x10000C780, symSize: 0x90 }
  - { offsetInCU: 0x1839A, offset: 0x1839A, size: 0x8, addend: 0x0, symName: __ZNSt3__123__dispatch_copy_or_moveB8ue170006INS_17_ClassicAlgPolicyENS_11__move_loopIS1_EENS_14__move_trivialENS_16reverse_iteratorIPP11nodeTypeTagEES9_S9_EENS_4pairIT2_T4_EESB_T3_SC_, symObjAddr: 0xB4E0, symBinAddr: 0x10000C810, symSize: 0x90 }
  - { offsetInCU: 0x18418, offset: 0x18418, size: 0x8, addend: 0x0, symName: __ZNSt3__121__unwrap_and_dispatchB8ue170006INS_10__overloadINS_11__move_loopINS_17_ClassicAlgPolicyEEENS_14__move_trivialEEENS_16reverse_iteratorIPP11nodeTypeTagEESB_SB_Li0EEENS_4pairIT0_T2_EESD_T1_SE_, symObjAddr: 0xB570, symBinAddr: 0x10000C8A0, symSize: 0x210 }
  - { offsetInCU: 0x184A7, offset: 0x184A7, size: 0x8, addend: 0x0, symName: __ZNSt3__114__unwrap_rangeB8ue170006INS_16reverse_iteratorIPP11nodeTypeTagEES5_EENS_4pairIT0_S7_EET_S9_, symObjAddr: 0xB780, symBinAddr: 0x10000CAB0, symSize: 0x90 }
  - { offsetInCU: 0x185C7, offset: 0x185C7, size: 0x8, addend: 0x0, symName: __ZNSt3__113__unwrap_iterB8ue170006INS_16reverse_iteratorIPP11nodeTypeTagEENS_18__unwrap_iter_implIS5_Lb0EEELi0EEEDTclsrT0_8__unwrapclsr3stdE7declvalIT_EEEES9_, symObjAddr: 0xB8B0, symBinAddr: 0x10000CBE0, symSize: 0x40 }
  - { offsetInCU: 0x1860B, offset: 0x1860B, size: 0x8, addend: 0x0, symName: __ZNSt3__19make_pairB8ue170006INS_16reverse_iteratorIPP11nodeTypeTagEES5_EENS_4pairINS_18__unwrap_ref_decayIT_E4typeENS7_IT0_E4typeEEEOS8_OSB_, symObjAddr: 0xB8F0, symBinAddr: 0x10000CC20, symSize: 0x30 }
  - { offsetInCU: 0x1865A, offset: 0x1865A, size: 0x8, addend: 0x0, symName: __ZNSt3__114__rewrap_rangeB8ue170006INS_16reverse_iteratorIPP11nodeTypeTagEES5_EET_S6_T0_, symObjAddr: 0xB920, symBinAddr: 0x10000CC50, symSize: 0x60 }
  - { offsetInCU: 0x186A6, offset: 0x186A6, size: 0x8, addend: 0x0, symName: __ZNSt3__113__rewrap_iterB8ue170006INS_16reverse_iteratorIPP11nodeTypeTagEES5_NS_18__unwrap_iter_implIS5_Lb0EEEEET_S8_T0_, symObjAddr: 0xB980, symBinAddr: 0x10000CCB0, symSize: 0x70 }
  - { offsetInCU: 0x186FB, offset: 0x186FB, size: 0x8, addend: 0x0, symName: __ZNSt3__1neB8ue170006IPP11nodeTypeTagS3_EEbRKNS_16reverse_iteratorIT_EERKNS4_IT0_EE, symObjAddr: 0xB9F0, symBinAddr: 0x10000CD20, symSize: 0x40 }
  - { offsetInCU: 0x187B3, offset: 0x187B3, size: 0x8, addend: 0x0, symName: __ZNSt3__118__constexpr_strlenB8ue170006EPKc, symObjAddr: 0xBF40, symBinAddr: 0x10000D270, symSize: 0x20 }
  - { offsetInCU: 0x18816, offset: 0x18816, size: 0x8, addend: 0x0, symName: __ZNSt3__116forward_as_tupleB8ue170006IJNS_12basic_stringIcNS_11char_traitsIcEENS_9allocatorIcEEEEEEENS_5tupleIJDpOT_EEESA_, symObjAddr: 0xC5C0, symBinAddr: 0x10000D8F0, symSize: 0x30 }
  - { offsetInCU: 0x1884F, offset: 0x1884F, size: 0x8, addend: 0x0, symName: __ZNSt3__116forward_as_tupleB8ue170006IJEEENS_5tupleIJDpOT_EEES4_, symObjAddr: 0xC5F0, symBinAddr: 0x10000D920, symSize: 0x10 }
  - { offsetInCU: 0x18873, offset: 0x18873, size: 0x8, addend: 0x0, symName: __ZNSt3__116__constrain_hashB8ue170006Emm, symObjAddr: 0xC6C0, symBinAddr: 0x10000D9F0, symSize: 0x80 }
  - { offsetInCU: 0x188AD, offset: 0x188AD, size: 0x8, addend: 0x0, symName: __ZNSt3__116__is_hash_power2B8ue170006Em, symObjAddr: 0xC9D0, symBinAddr: 0x10000DD00, symSize: 0x40 }
  - { offsetInCU: 0x188D9, offset: 0x188D9, size: 0x8, addend: 0x0, symName: __ZNSt3__116__do_string_hashB8ue170006IPKcEEmT_S3_, symObjAddr: 0xCC00, symBinAddr: 0x10000DF30, symSize: 0x40 }
  - { offsetInCU: 0x1891F, offset: 0x1891F, size: 0x8, addend: 0x0, symName: __ZNSt3__110__loadwordB8ue170006ImEET_PKv, symObjAddr: 0xD540, symBinAddr: 0x10000E870, symSize: 0x20 }
  - { offsetInCU: 0x18962, offset: 0x18962, size: 0x8, addend: 0x0, symName: __ZNSt3__14swapB8ue170006ImEENS_9enable_ifIXaasr21is_move_constructibleIT_EE5valuesr18is_move_assignableIS2_EE5valueEvE4typeERS2_S5_, symObjAddr: 0xD700, symBinAddr: 0x10000EA30, symSize: 0x40 }
  - { offsetInCU: 0x189B3, offset: 0x189B3, size: 0x8, addend: 0x0, symName: __ZNSt3__110__loadwordB8ue170006IjEET_PKv, symObjAddr: 0xD790, symBinAddr: 0x10000EAC0, symSize: 0x20 }
  - { offsetInCU: 0x189F6, offset: 0x189F6, size: 0x8, addend: 0x0, symName: __ZNSt3__1eqB8ue170006INS_9allocatorIcEEEEbRKNS_12basic_stringIcNS_11char_traitsIcEET_EES9_, symObjAddr: 0xDA70, symBinAddr: 0x10000EDA0, symSize: 0x110 }
  - { offsetInCU: 0x18AC5, offset: 0x18AC5, size: 0x8, addend: 0x0, symName: __ZNSt3__13getB8ue170006ILm0EJONS_12basic_stringIcNS_11char_traitsIcEENS_9allocatorIcEEEEEEERNS_13tuple_elementIXT_ENS_5tupleIJDpT0_EEEE4typeERSC_, symObjAddr: 0xDFE0, symBinAddr: 0x10000F310, symSize: 0x20 }
  - { offsetInCU: 0x18B08, offset: 0x18B08, size: 0x8, addend: 0x0, symName: __ZNSt3__116__next_hash_pow2B8ue170006Em, symObjAddr: 0xE630, symBinAddr: 0x10000F960, symSize: 0x60 }
  - { offsetInCU: 0x18B50, offset: 0x18B50, size: 0x8, addend: 0x0, symName: __ZNSt3__112__libcpp_clzB8ue170006Em, symObjAddr: 0xE990, symBinAddr: 0x10000FCC0, symSize: 0x20 }
  - { offsetInCU: 0x18BD3, offset: 0x18BD3, size: 0x8, addend: 0x0, symName: __ZNSt3__1neB8ue170006ERKNS_15__hash_iteratorIPNS_11__hash_nodeINS_17__hash_value_typeINS_12basic_stringIcNS_11char_traitsIcEENS_9allocatorIcEEEEP4NodeEEPvEEEESH_, symObjAddr: 0xEE90, symBinAddr: 0x1000101C0, symSize: 0x30 }
  - { offsetInCU: 0x18C10, offset: 0x18C10, size: 0x8, addend: 0x0, symName: __ZNSt3__1eqB8ue170006ERKNS_15__hash_iteratorIPNS_11__hash_nodeINS_17__hash_value_typeINS_12basic_stringIcNS_11char_traitsIcEENS_9allocatorIcEEEEP4NodeEEPvEEEESH_, symObjAddr: 0xEEC0, symBinAddr: 0x1000101F0, symSize: 0x30 }
  - { offsetInCU: 0x191B2, offset: 0x191B2, size: 0x8, addend: 0x0, symName: __ZSt28__throw_bad_array_new_lengthB8ue170006v, symObjAddr: 0x8340, symBinAddr: 0x100009670, symSize: 0x40 }
  - { offsetInCU: 0x1B001, offset: 0x1B001, size: 0x8, addend: 0x0, symName: _currentScope, symObjAddr: 0xD56B8, symBinAddr: 0x100023040, symSize: 0x0 }
  - { offsetInCU: 0x1B016, offset: 0x1B016, size: 0x8, addend: 0x0, symName: _rootScope, symObjAddr: 0xD56C0, symBinAddr: 0x100023048, symSize: 0x0 }
  - { offsetInCU: 0x1B02D, offset: 0x1B02D, size: 0x8, addend: 0x0, symName: _yychar, symObjAddr: 0xD56C8, symBinAddr: 0x100023050, symSize: 0x0 }
  - { offsetInCU: 0x1B044, offset: 0x1B044, size: 0x8, addend: 0x0, symName: _yylval, symObjAddr: 0xD56D0, symBinAddr: 0x100023058, symSize: 0x0 }
  - { offsetInCU: 0x1B0B9, offset: 0x1B0B9, size: 0x8, addend: 0x0, symName: _yynerrs, symObjAddr: 0xD56D8, symBinAddr: 0x100023060, symSize: 0x0 }
  - { offsetInCU: 0x1B0D0, offset: 0x1B0D0, size: 0x8, addend: 0x0, symName: __ZL6yypact, symObjAddr: 0x11430, symBinAddr: 0x10001FD20, symSize: 0x0 }
  - { offsetInCU: 0x1B108, offset: 0x1B108, size: 0x8, addend: 0x0, symName: __ZL11yytranslate, symObjAddr: 0x115B0, symBinAddr: 0x10001FEA0, symSize: 0x0 }
  - { offsetInCU: 0x1B148, offset: 0x1B148, size: 0x8, addend: 0x0, symName: __ZL7yycheck, symObjAddr: 0x116E0, symBinAddr: 0x10001FFD0, symSize: 0x0 }
  - { offsetInCU: 0x1B171, offset: 0x1B171, size: 0x8, addend: 0x0, symName: __ZL7yytable, symObjAddr: 0x11AB0, symBinAddr: 0x1000203A0, symSize: 0x0 }
  - { offsetInCU: 0x1B1AB, offset: 0x1B1AB, size: 0x8, addend: 0x0, symName: __ZL8yydefact, symObjAddr: 0x11CA0, symBinAddr: 0x100020590, symSize: 0x0 }
  - { offsetInCU: 0x1B1D2, offset: 0x1B1D2, size: 0x8, addend: 0x0, symName: __ZL4yyr2, symObjAddr: 0x11D60, symBinAddr: 0x100020650, symSize: 0x0 }
  - { offsetInCU: 0x1B1F9, offset: 0x1B1F9, size: 0x8, addend: 0x0, symName: __ZL4yyr1, symObjAddr: 0x11DC0, symBinAddr: 0x1000206B0, symSize: 0x0 }
  - { offsetInCU: 0x1B214, offset: 0x1B214, size: 0x8, addend: 0x0, symName: __ZL7yypgoto, symObjAddr: 0x11E20, symBinAddr: 0x100020710, symSize: 0x0 }
  - { offsetInCU: 0x1B23B, offset: 0x1B23B, size: 0x8, addend: 0x0, symName: __ZL9yydefgoto, symObjAddr: 0x11E70, symBinAddr: 0x100020760, symSize: 0x0 }
  - { offsetInCU: 0x1B262, offset: 0x1B262, size: 0x8, addend: 0x0, symName: __ZL6yystos, symObjAddr: 0x11EA0, symBinAddr: 0x100020790, symSize: 0x0 }
  - { offsetInCU: 0x1B535, offset: 0x1B535, size: 0x8, addend: 0x0, symName: __ZNSt3__16vectorI8typeEnumNS_9allocatorIS1_EEE26__swap_out_circular_bufferERNS_14__split_bufferIS1_RS3_EE, symObjAddr: 0x7BF0, symBinAddr: 0x100008F20, symSize: 0x120 }
  - { offsetInCU: 0x1B58C, offset: 0x1B58C, size: 0x8, addend: 0x0, symName: __ZNSt3__16vectorIPcNS_9allocatorIS1_EEE26__swap_out_circular_bufferERNS_14__split_bufferIS1_RS3_EE, symObjAddr: 0x9570, symBinAddr: 0x10000A8A0, symSize: 0x120 }
  - { offsetInCU: 0x1B5E3, offset: 0x1B5E3, size: 0x8, addend: 0x0, symName: __ZNSt3__16vectorIP11nodeTypeTagNS_9allocatorIS2_EEE26__swap_out_circular_bufferERNS_14__split_bufferIS2_RS4_EE, symObjAddr: 0xABB0, symBinAddr: 0x10000BEE0, symSize: 0x120 }
  - { offsetInCU: 0x1D7FB, offset: 0x1D7FB, size: 0x8, addend: 0x0, symName: __ZN11symbolTableC1Ev, symObjAddr: 0x0, symBinAddr: 0x100001330, symSize: 0x20 }
  - { offsetInCU: 0x1D82C, offset: 0x1D82C, size: 0x8, addend: 0x0, symName: __ZN4NodeC1Ev, symObjAddr: 0x20, symBinAddr: 0x100001350, symSize: 0x20 }
  - { offsetInCU: 0x1D857, offset: 0x1D857, size: 0x8, addend: 0x0, symName: __Z7yyparsev, symObjAddr: 0x40, symBinAddr: 0x100001370, symSize: 0x1930 }
  - { offsetInCU: 0x1DACC, offset: 0x1DACC, size: 0x8, addend: 0x0, symName: __Z7executeP11nodeTypeTag, symObjAddr: 0x1970, symBinAddr: 0x100002CA0, symSize: 0x1AE0 }
  - { offsetInCU: 0x1DD3D, offset: 0x1DD3D, size: 0x8, addend: 0x0, symName: __Z9operationiiz, symObjAddr: 0x3450, symBinAddr: 0x100004780, symSize: 0x1C0 }
  - { offsetInCU: 0x1DDA9, offset: 0x1DDA9, size: 0x8, addend: 0x0, symName: __Z10identifierPc, symObjAddr: 0x3610, symBinAddr: 0x100004940, symSize: 0x50 }
  - { offsetInCU: 0x1DDE6, offset: 0x1DDE6, size: 0x8, addend: 0x0, symName: __Z10defineType8typeEnum, symObjAddr: 0x3660, symBinAddr: 0x100004990, symSize: 0x50 }
  - { offsetInCU: 0x1DE23, offset: 0x1DE23, size: 0x8, addend: 0x0, symName: __Z18addToParameterListP11nodeTypeTagS0_S0_, symObjAddr: 0x36B0, symBinAddr: 0x1000049E0, symSize: 0x80 }
  - { offsetInCU: 0x1DE7E, offset: 0x1DE7E, size: 0x8, addend: 0x0, symName: __Z19createParameterListP11nodeTypeTagS0_, symObjAddr: 0x3730, symBinAddr: 0x100004A60, symSize: 0x80 }
  - { offsetInCU: 0x1DECA, offset: 0x1DECA, size: 0x8, addend: 0x0, symName: __Z22addToParameterCallListP11nodeTypeTagS0_, symObjAddr: 0x37B0, symBinAddr: 0x100004AE0, symSize: 0x60 }
  - { offsetInCU: 0x1DF16, offset: 0x1DF16, size: 0x8, addend: 0x0, symName: __Z23createParameterCallListP11nodeTypeTag, symObjAddr: 0x3810, symBinAddr: 0x100004B40, symSize: 0x60 }
  - { offsetInCU: 0x1DF53, offset: 0x1DF53, size: 0x8, addend: 0x0, symName: __Z13constantValue8typeEnumPv, symObjAddr: 0x3870, symBinAddr: 0x100004BA0, symSize: 0x160 }
  - { offsetInCU: 0x1DF9F, offset: 0x1DF9F, size: 0x8, addend: 0x0, symName: __Z7yyerrorPKc, symObjAddr: 0x39D0, symBinAddr: 0x100004D00, symSize: 0x60 }
  - { offsetInCU: 0x1DFCA, offset: 0x1DFCA, size: 0x8, addend: 0x0, symName: __ZL10yydestructPKc15yysymbol_kind_tP7YYSTYPE, symObjAddr: 0x3A30, symBinAddr: 0x100004D60, symSize: 0x30 }
  - { offsetInCU: 0x1E013, offset: 0x1E013, size: 0x8, addend: 0x0, symName: __ZNSt3__16vectorI8typeEnumNS_9allocatorIS1_EEE9push_backB8ue170006ERKS1_, symObjAddr: 0x3A60, symBinAddr: 0x100004D90, symSize: 0x60 }
  - { offsetInCU: 0x1E04A, offset: 0x1E04A, size: 0x8, addend: 0x0, symName: __ZNSt3__16vectorIPcNS_9allocatorIS1_EEE9push_backB8ue170006ERKS1_, symObjAddr: 0x3AC0, symBinAddr: 0x100004DF0, symSize: 0x60 }
  - { offsetInCU: 0x1E081, offset: 0x1E081, size: 0x8, addend: 0x0, symName: __ZNSt3__16vectorIP11nodeTypeTagNS_9allocatorIS2_EEE9push_backB8ue170006ERKS2_, symObjAddr: 0x3B20, symBinAddr: 0x100004E50, symSize: 0x60 }
  - { offsetInCU: 0x1E0B7, offset: 0x1E0B7, size: 0x8, addend: 0x0, symName: __Z8freeNodeP11nodeTypeTag, symObjAddr: 0x3B80, symBinAddr: 0x100004EB0, symSize: 0x80 }
  - { offsetInCU: 0x1E0F0, offset: 0x1E0F0, size: 0x8, addend: 0x0, symName: __Z17handleIfStatementP11nodeTypeTagi, symObjAddr: 0x3C00, symBinAddr: 0x100004F30, symSize: 0x1A0 }
  - { offsetInCU: 0x1E14B, offset: 0x1E14B, size: 0x8, addend: 0x0, symName: __Z9yywarningPKc, symObjAddr: 0x3DA0, symBinAddr: 0x1000050D0, symSize: 0x70 }
  - { offsetInCU: 0x1E175, offset: 0x1E175, size: 0x8, addend: 0x0, symName: __Z8writeVarPv8typeEnum, symObjAddr: 0x3E10, symBinAddr: 0x100005140, symSize: 0x120 }
  - { offsetInCU: 0x1E1AE, offset: 0x1E1AE, size: 0x8, addend: 0x0, symName: __Z21handleSwitchStatementP11nodeTypeTag, symObjAddr: 0x3F30, symBinAddr: 0x100005260, symSize: 0x160 }
  - { offsetInCU: 0x1E1FA, offset: 0x1E1FA, size: 0x8, addend: 0x0, symName: __Z17getIdentifierTypePc, symObjAddr: 0x4090, symBinAddr: 0x1000053C0, symSize: 0x250 }
  - { offsetInCU: 0x1E238, offset: 0x1E238, size: 0x8, addend: 0x0, symName: __ZNSt3__113unordered_mapINS_12basic_stringIcNS_11char_traitsIcEENS_9allocatorIcEEEEbNS_4hashIS6_EENS_8equal_toIS6_EENS4_INS_4pairIKS6_bEEEEEixEOS6_, symObjAddr: 0x42E0, symBinAddr: 0x100005610, symSize: 0x70 }
  - { offsetInCU: 0x1E274, offset: 0x1E274, size: 0x8, addend: 0x0, symName: __ZNSt3__112basic_stringIcNS_11char_traitsIcEENS_9allocatorIcEEEC1B8ue170006ILi0EEEPKc, symObjAddr: 0x4350, symBinAddr: 0x100005680, symSize: 0x30 }
  - { offsetInCU: 0x1E2B2, offset: 0x1E2B2, size: 0x8, addend: 0x0, symName: __Z19handleCaseStatementP11nodeTypeTag, symObjAddr: 0x4380, symBinAddr: 0x1000056B0, symSize: 0x150 }
  - { offsetInCU: 0x1E31C, offset: 0x1E31C, size: 0x8, addend: 0x0, symName: __Z23handleEnumCaseStatementP11nodeTypeTag, symObjAddr: 0x44D0, symBinAddr: 0x100005800, symSize: 0x1D0 }
  - { offsetInCU: 0x1E34A, offset: 0x1E34A, size: 0x8, addend: 0x0, symName: __Z19handleIdetifierNodeP11nodeTypeTag, symObjAddr: 0x46A0, symBinAddr: 0x1000059D0, symSize: 0x290 }
  - { offsetInCU: 0x1E3A7, offset: 0x1E3A7, size: 0x8, addend: 0x0, symName: __ZNSt3__113unordered_mapINS_12basic_stringIcNS_11char_traitsIcEENS_9allocatorIcEEEEP4NodeNS_4hashIS6_EENS_8equal_toIS6_EENS4_INS_4pairIKS6_S8_EEEEE5beginB8ue170006Ev, symObjAddr: 0x4930, symBinAddr: 0x100005C60, symSize: 0x30 }
  - { offsetInCU: 0x1E3CD, offset: 0x1E3CD, size: 0x8, addend: 0x0, symName: __ZNSt3__113unordered_mapINS_12basic_stringIcNS_11char_traitsIcEENS_9allocatorIcEEEEP4NodeNS_4hashIS6_EENS_8equal_toIS6_EENS4_INS_4pairIKS6_S8_EEEEE3endB8ue170006Ev, symObjAddr: 0x4990, symBinAddr: 0x100005CC0, symSize: 0x30 }
  - { offsetInCU: 0x1E3F3, offset: 0x1E3F3, size: 0x8, addend: 0x0, symName: __ZNKSt3__119__hash_map_iteratorINS_15__hash_iteratorIPNS_11__hash_nodeINS_17__hash_value_typeINS_12basic_stringIcNS_11char_traitsIcEENS_9allocatorIcEEEEP4NodeEEPvEEEEEptB8ue170006Ev, symObjAddr: 0x49C0, symBinAddr: 0x100005CF0, symSize: 0x30 }
  - { offsetInCU: 0x1E419, offset: 0x1E419, size: 0x8, addend: 0x0, symName: __ZNSt3__119__hash_map_iteratorINS_15__hash_iteratorIPNS_11__hash_nodeINS_17__hash_value_typeINS_12basic_stringIcNS_11char_traitsIcEENS_9allocatorIcEEEEP4NodeEEPvEEEEEppB8ue170006Ev, symObjAddr: 0x49F0, symBinAddr: 0x100005D20, symSize: 0x30 }
  - { offsetInCU: 0x1E43E, offset: 0x1E43E, size: 0x8, addend: 0x0, symName: __Z22handleLogicalOperationP11nodeTypeTag, symObjAddr: 0x4A20, symBinAddr: 0x100005D50, symSize: 0xE0 }
  - { offsetInCU: 0x1E48A, offset: 0x1E48A, size: 0x8, addend: 0x0, symName: __Z29handlEqualitEqualityOperationP11nodeTypeTag, symObjAddr: 0x4B00, symBinAddr: 0x100005E30, symSize: 0x1A0 }
  - { offsetInCU: 0x1E4FB, offset: 0x1E4FB, size: 0x8, addend: 0x0, symName: __Z8coercion8typeEnumS_, symObjAddr: 0x4CA0, symBinAddr: 0x100005FD0, symSize: 0xE0 }
  - { offsetInCU: 0x1E539, offset: 0x1E539, size: 0x8, addend: 0x0, symName: __ZNKSt3__112basic_stringIcNS_11char_traitsIcEENS_9allocatorIcEEE5c_strB8ue170006Ev, symObjAddr: 0x4D80, symBinAddr: 0x1000060B0, symSize: 0x20 }
  - { offsetInCU: 0x1E55E, offset: 0x1E55E, size: 0x8, addend: 0x0, symName: __Z25handleRelationalOperationP11nodeTypeTag, symObjAddr: 0x4DA0, symBinAddr: 0x1000060D0, symSize: 0x140 }
  - { offsetInCU: 0x1E5CF, offset: 0x1E5CF, size: 0x8, addend: 0x0, symName: __Z25handleArithmeticOperationP11nodeTypeTag, symObjAddr: 0x4EE0, symBinAddr: 0x100006210, symSize: 0x1D0 }
  - { offsetInCU: 0x1E640, offset: 0x1E640, size: 0x8, addend: 0x0, symName: __Z29handleMultiplicativeOperationP11nodeTypeTag, symObjAddr: 0x50B0, symBinAddr: 0x1000063E0, symSize: 0x170 }
  - { offsetInCU: 0x1E6B1, offset: 0x1E6B1, size: 0x8, addend: 0x0, symName: __Z23handleAdditiveOperationP11nodeTypeTag, symObjAddr: 0x5220, symBinAddr: 0x100006550, symSize: 0x140 }
  - { offsetInCU: 0x1E722, offset: 0x1E722, size: 0x8, addend: 0x0, symName: __Z20handleUnaryOperationP11nodeTypeTag, symObjAddr: 0x5360, symBinAddr: 0x100006690, symSize: 0x160 }
  - { offsetInCU: 0x1E75F, offset: 0x1E75F, size: 0x8, addend: 0x0, symName: __Z13handleForLoopP11nodeTypeTag, symObjAddr: 0x54C0, symBinAddr: 0x1000067F0, symSize: 0x110 }
  - { offsetInCU: 0x1E798, offset: 0x1E798, size: 0x8, addend: 0x0, symName: __Z15handleWhileLoopP11nodeTypeTag, symObjAddr: 0x55D0, symBinAddr: 0x100006900, symSize: 0xF0 }
  - { offsetInCU: 0x1E7E0, offset: 0x1E7E0, size: 0x8, addend: 0x0, symName: __Z8handleDoP11nodeTypeTag, symObjAddr: 0x56C0, symBinAddr: 0x1000069F0, symSize: 0xF0 }
  - { offsetInCU: 0x1E819, offset: 0x1E819, size: 0x8, addend: 0x0, symName: __Z21insertIntoSymbolTableP11nodeTypeTagPKc, symObjAddr: 0x57B0, symBinAddr: 0x100006AE0, symSize: 0xE0 }
  - { offsetInCU: 0x1E861, offset: 0x1E861, size: 0x8, addend: 0x0, symName: __Z16handleParametersP11nodeTypeTagb, symObjAddr: 0x5890, symBinAddr: 0x100006BC0, symSize: 0x200 }
  - { offsetInCU: 0x1E8E5, offset: 0x1E8E5, size: 0x8, addend: 0x0, symName: __ZNKSt3__16vectorI8typeEnumNS_9allocatorIS1_EEE4sizeB8ue170006Ev, symObjAddr: 0x5A90, symBinAddr: 0x100006DC0, symSize: 0x20 }
  - { offsetInCU: 0x1E90B, offset: 0x1E90B, size: 0x8, addend: 0x0, symName: __ZNSt3__16vectorIPcNS_9allocatorIS1_EEEixB8ue170006Em, symObjAddr: 0x5AB0, symBinAddr: 0x100006DE0, symSize: 0x20 }
  - { offsetInCU: 0x1E942, offset: 0x1E942, size: 0x8, addend: 0x0, symName: __ZNSt3__16vectorI8typeEnumNS_9allocatorIS1_EEEixB8ue170006Em, symObjAddr: 0x5AD0, symBinAddr: 0x100006E00, symSize: 0x20 }
  - { offsetInCU: 0x1E978, offset: 0x1E978, size: 0x8, addend: 0x0, symName: __Z14handleFunctionP11nodeTypeTagi, symObjAddr: 0x5AF0, symBinAddr: 0x100006E20, symSize: 0x1E0 }
  - { offsetInCU: 0x1E9FC, offset: 0x1E9FC, size: 0x8, addend: 0x0, symName: __ZNKSt3__16vectorIP11nodeTypeTagNS_9allocatorIS2_EEE4sizeB8ue170006Ev, symObjAddr: 0x5D60, symBinAddr: 0x100007090, symSize: 0x20 }
  - { offsetInCU: 0x1EA22, offset: 0x1EA22, size: 0x8, addend: 0x0, symName: __ZNSt3__113unordered_mapINS_12basic_stringIcNS_11char_traitsIcEENS_9allocatorIcEEEENS_6vectorI8typeEnumNS4_IS8_EEEENS_4hashIS6_EENS_8equal_toIS6_EENS4_INS_4pairIKS6_SA_EEEEEixEOS6_, symObjAddr: 0x5D80, symBinAddr: 0x1000070B0, symSize: 0x70 }
  - { offsetInCU: 0x1EA59, offset: 0x1EA59, size: 0x8, addend: 0x0, symName: __ZNSt3__16vectorIP11nodeTypeTagNS_9allocatorIS2_EEEixB8ue170006Em, symObjAddr: 0x5DF0, symBinAddr: 0x100007120, symSize: 0x20 }
  - { offsetInCU: 0x1EA90, offset: 0x1EA90, size: 0x8, addend: 0x0, symName: __Z6yywrapv, symObjAddr: 0x5E10, symBinAddr: 0x100007140, symSize: 0x10 }
  - { offsetInCU: 0x1EAAE, offset: 0x1EAAE, size: 0x8, addend: 0x0, symName: __Z9read_filePc, symObjAddr: 0x5E20, symBinAddr: 0x100007150, symSize: 0x50 }
  - { offsetInCU: 0x1EAE8, offset: 0x1EAE8, size: 0x8, addend: 0x0, symName: _main, symObjAddr: 0x5E70, symBinAddr: 0x1000071A0, symSize: 0x130 }
  - { offsetInCU: 0x1EB31, offset: 0x1EB31, size: 0x8, addend: 0x0, symName: __ZN11symbolTableC2Ev, symObjAddr: 0x5FA0, symBinAddr: 0x1000072D0, symSize: 0x40 }
  - { offsetInCU: 0x1EB5D, offset: 0x1EB5D, size: 0x8, addend: 0x0, symName: __ZNSt3__113unordered_mapINS_12basic_stringIcNS_11char_traitsIcEENS_9allocatorIcEEEEP4NodeNS_4hashIS6_EENS_8equal_toIS6_EENS4_INS_4pairIKS6_S8_EEEEEC1B8ue170006Ev, symObjAddr: 0x5FE0, symBinAddr: 0x100007310, symSize: 0x20 }
  - { offsetInCU: 0x1EB87, offset: 0x1EB87, size: 0x8, addend: 0x0, symName: __ZNSt3__113unordered_mapINS_12basic_stringIcNS_11char_traitsIcEENS_9allocatorIcEEEENS_6vectorI8typeEnumNS4_IS8_EEEENS_4hashIS6_EENS_8equal_toIS6_EENS4_INS_4pairIKS6_SA_EEEEEC1B8ue170006Ev, symObjAddr: 0x6000, symBinAddr: 0x100007330, symSize: 0x20 }
  - { offsetInCU: 0x1EBB1, offset: 0x1EBB1, size: 0x8, addend: 0x0, symName: __ZNSt3__113unordered_mapINS_12basic_stringIcNS_11char_traitsIcEENS_9allocatorIcEEEEbNS_4hashIS6_EENS_8equal_toIS6_EENS4_INS_4pairIKS6_bEEEEEC1B8ue170006Ev, symObjAddr: 0x6020, symBinAddr: 0x100007350, symSize: 0x20 }
  - { offsetInCU: 0x1EBDB, offset: 0x1EBDB, size: 0x8, addend: 0x0, symName: __ZNSt3__113unordered_mapINS_12basic_stringIcNS_11char_traitsIcEENS_9allocatorIcEEEEP4NodeNS_4hashIS6_EENS_8equal_toIS6_EENS4_INS_4pairIKS6_S8_EEEEEC2B8ue170006Ev, symObjAddr: 0x6040, symBinAddr: 0x100007370, symSize: 0x20 }
  - { offsetInCU: 0x1EC05, offset: 0x1EC05, size: 0x8, addend: 0x0, symName: __ZNSt3__112__hash_tableINS_17__hash_value_typeINS_12basic_stringIcNS_11char_traitsIcEENS_9allocatorIcEEEEP4NodeEENS_22__unordered_map_hasherIS7_SA_NS_4hashIS7_EENS_8equal_toIS7_EELb1EEENS_21__unordered_map_equalIS7_SA_SF_SD_Lb1EEENS5_ISA_EEEC1Ev, symObjAddr: 0x6060, symBinAddr: 0x100007390, symSize: 0x20 }
  - { offsetInCU: 0x1EC31, offset: 0x1EC31, size: 0x8, addend: 0x0, symName: __ZNSt3__112__hash_tableINS_17__hash_value_typeINS_12basic_stringIcNS_11char_traitsIcEENS_9allocatorIcEEEEP4NodeEENS_22__unordered_map_hasherIS7_SA_NS_4hashIS7_EENS_8equal_toIS7_EELb1EEENS_21__unordered_map_equalIS7_SA_SF_SD_Lb1EEENS5_ISA_EEEC2Ev, symObjAddr: 0x6080, symBinAddr: 0x1000073B0, symSize: 0x80 }
  - { offsetInCU: 0x1EC5D, offset: 0x1EC5D, size: 0x8, addend: 0x0, symName: __ZNSt3__110unique_ptrIA_PNS_16__hash_node_baseIPNS_11__hash_nodeINS_17__hash_value_typeINS_12basic_stringIcNS_11char_traitsIcEENS_9allocatorIcEEEEP4NodeEEPvEEEENS_25__bucket_list_deallocatorINS7_ISH_EEEEEC1B8ue170006ILb1EvEEv, symObjAddr: 0x6100, symBinAddr: 0x100007430, symSize: 0x20 }
  - { offsetInCU: 0x1EC92, offset: 0x1EC92, size: 0x8, addend: 0x0, symName: __ZNSt3__117__compressed_pairINS_16__hash_node_baseIPNS_11__hash_nodeINS_17__hash_value_typeINS_12basic_stringIcNS_11char_traitsIcEENS_9allocatorIcEEEEP4NodeEEPvEEEENS7_ISE_EEEC1B8ue170006ILb1EvEEv, symObjAddr: 0x6120, symBinAddr: 0x100007450, symSize: 0x20 }
  - { offsetInCU: 0x1ECD1, offset: 0x1ECD1, size: 0x8, addend: 0x0, symName: __ZNSt3__117__compressed_pairImNS_22__unordered_map_hasherINS_12basic_stringIcNS_11char_traitsIcEENS_9allocatorIcEEEENS_17__hash_value_typeIS7_P4NodeEENS_4hashIS7_EENS_8equal_toIS7_EELb1EEEEC1B8ue170006IiNS_18__default_init_tagEEEOT_OT0_, symObjAddr: 0x6150, symBinAddr: 0x100007480, symSize: 0x30 }
  - { offsetInCU: 0x1ED2E, offset: 0x1ED2E, size: 0x8, addend: 0x0, symName: __ZNSt3__117__compressed_pairIfNS_21__unordered_map_equalINS_12basic_stringIcNS_11char_traitsIcEENS_9allocatorIcEEEENS_17__hash_value_typeIS7_P4NodeEENS_8equal_toIS7_EENS_4hashIS7_EELb1EEEEC1B8ue170006IfNS_18__default_init_tagEEEOT_OT0_, symObjAddr: 0x6180, symBinAddr: 0x1000074B0, symSize: 0x30 }
  - { offsetInCU: 0x1ED86, offset: 0x1ED86, size: 0x8, addend: 0x0, symName: __ZNSt3__110unique_ptrIA_PNS_16__hash_node_baseIPNS_11__hash_nodeINS_17__hash_value_typeINS_12basic_stringIcNS_11char_traitsIcEENS_9allocatorIcEEEEP4NodeEEPvEEEENS_25__bucket_list_deallocatorINS7_ISH_EEEEEC2B8ue170006ILb1EvEEv, symObjAddr: 0x61B0, symBinAddr: 0x1000074E0, symSize: 0x30 }
  - { offsetInCU: 0x1EDC0, offset: 0x1EDC0, size: 0x8, addend: 0x0, symName: __ZNSt3__117__compressed_pairIPPNS_16__hash_node_baseIPNS_11__hash_nodeINS_17__hash_value_typeINS_12basic_stringIcNS_11char_traitsIcEENS_9allocatorIcEEEEP4NodeEEPvEEEENS_25__bucket_list_deallocatorINS7_ISH_EEEEEC1B8ue170006INS_16__value_init_tagESO_EEOT_OT0_, symObjAddr: 0x61E0, symBinAddr: 0x100007510, symSize: 0x30 }
  - { offsetInCU: 0x1EE18, offset: 0x1EE18, size: 0x8, addend: 0x0, symName: __ZNSt3__117__compressed_pairIPPNS_16__hash_node_baseIPNS_11__hash_nodeINS_17__hash_value_typeINS_12basic_stringIcNS_11char_traitsIcEENS_9allocatorIcEEEEP4NodeEEPvEEEENS_25__bucket_list_deallocatorINS7_ISH_EEEEEC2B8ue170006INS_16__value_init_tagESO_EEOT_OT0_, symObjAddr: 0x6210, symBinAddr: 0x100007540, symSize: 0x40 }
  - { offsetInCU: 0x1EE70, offset: 0x1EE70, size: 0x8, addend: 0x0, symName: __ZNSt3__122__compressed_pair_elemIPPNS_16__hash_node_baseIPNS_11__hash_nodeINS_17__hash_value_typeINS_12basic_stringIcNS_11char_traitsIcEENS_9allocatorIcEEEEP4NodeEEPvEEEELi0ELb0EEC2B8ue170006ENS_16__value_init_tagE, symObjAddr: 0x6250, symBinAddr: 0x100007580, symSize: 0x20 }
  - { offsetInCU: 0x1EEA5, offset: 0x1EEA5, size: 0x8, addend: 0x0, symName: __ZNSt3__122__compressed_pair_elemINS_25__bucket_list_deallocatorINS_9allocatorIPNS_16__hash_node_baseIPNS_11__hash_nodeINS_17__hash_value_typeINS_12basic_stringIcNS_11char_traitsIcEENS2_IcEEEEP4NodeEEPvEEEEEEEELi1ELb0EEC2B8ue170006ENS_16__value_init_tagE, symObjAddr: 0x6270, symBinAddr: 0x1000075A0, symSize: 0x20 }
  - { offsetInCU: 0x1EEDA, offset: 0x1EEDA, size: 0x8, addend: 0x0, symName: __ZNSt3__125__bucket_list_deallocatorINS_9allocatorIPNS_16__hash_node_baseIPNS_11__hash_nodeINS_17__hash_value_typeINS_12basic_stringIcNS_11char_traitsIcEENS1_IcEEEEP4NodeEEPvEEEEEEEC1B8ue170006Ev, symObjAddr: 0x6290, symBinAddr: 0x1000075C0, symSize: 0x20 }
  - { offsetInCU: 0x1EF04, offset: 0x1EF04, size: 0x8, addend: 0x0, symName: __ZNSt3__125__bucket_list_deallocatorINS_9allocatorIPNS_16__hash_node_baseIPNS_11__hash_nodeINS_17__hash_value_typeINS_12basic_stringIcNS_11char_traitsIcEENS1_IcEEEEP4NodeEEPvEEEEEEEC2B8ue170006Ev, symObjAddr: 0x62B0, symBinAddr: 0x1000075E0, symSize: 0x40 }
  - { offsetInCU: 0x1EF2E, offset: 0x1EF2E, size: 0x8, addend: 0x0, symName: __ZNSt3__117__compressed_pairImNS_9allocatorIPNS_16__hash_node_baseIPNS_11__hash_nodeINS_17__hash_value_typeINS_12basic_stringIcNS_11char_traitsIcEENS1_IcEEEEP4NodeEEPvEEEEEEEC1B8ue170006IiNS_18__default_init_tagEEEOT_OT0_, symObjAddr: 0x62F0, symBinAddr: 0x100007620, symSize: 0x30 }
  - { offsetInCU: 0x1EF86, offset: 0x1EF86, size: 0x8, addend: 0x0, symName: __ZNSt3__117__compressed_pairImNS_9allocatorIPNS_16__hash_node_baseIPNS_11__hash_nodeINS_17__hash_value_typeINS_12basic_stringIcNS_11char_traitsIcEENS1_IcEEEEP4NodeEEPvEEEEEEEC2B8ue170006IiNS_18__default_init_tagEEEOT_OT0_, symObjAddr: 0x6320, symBinAddr: 0x100007650, symSize: 0x40 }
  - { offsetInCU: 0x1EFDE, offset: 0x1EFDE, size: 0x8, addend: 0x0, symName: __ZNSt3__122__compressed_pair_elemImLi0ELb0EEC2B8ue170006IivEEOT_, symObjAddr: 0x6360, symBinAddr: 0x100007690, symSize: 0x20 }
  - { offsetInCU: 0x1F020, offset: 0x1F020, size: 0x8, addend: 0x0, symName: __ZNSt3__122__compressed_pair_elemINS_9allocatorIPNS_16__hash_node_baseIPNS_11__hash_nodeINS_17__hash_value_typeINS_12basic_stringIcNS_11char_traitsIcEENS1_IcEEEEP4NodeEEPvEEEEEELi1ELb1EEC2B8ue170006ENS_18__default_init_tagE, symObjAddr: 0x6380, symBinAddr: 0x1000076B0, symSize: 0x20 }
  - { offsetInCU: 0x1F055, offset: 0x1F055, size: 0x8, addend: 0x0, symName: __ZNSt3__19allocatorIPNS_16__hash_node_baseIPNS_11__hash_nodeINS_17__hash_value_typeINS_12basic_stringIcNS_11char_traitsIcEENS0_IcEEEEP4NodeEEPvEEEEEC2B8ue170006Ev, symObjAddr: 0x63A0, symBinAddr: 0x1000076D0, symSize: 0x20 }
  - { offsetInCU: 0x1F07F, offset: 0x1F07F, size: 0x8, addend: 0x0, symName: __ZNSt3__116__non_trivial_ifILb1ENS_9allocatorIPNS_16__hash_node_baseIPNS_11__hash_nodeINS_17__hash_value_typeINS_12basic_stringIcNS_11char_traitsIcEENS1_IcEEEEP4NodeEEPvEEEEEEEC2B8ue170006Ev, symObjAddr: 0x63C0, symBinAddr: 0x1000076F0, symSize: 0x10 }
  - { offsetInCU: 0x1F0A9, offset: 0x1F0A9, size: 0x8, addend: 0x0, symName: __ZNSt3__117__compressed_pairINS_16__hash_node_baseIPNS_11__hash_nodeINS_17__hash_value_typeINS_12basic_stringIcNS_11char_traitsIcEENS_9allocatorIcEEEEP4NodeEEPvEEEENS7_ISE_EEEC2B8ue170006ILb1EvEEv, symObjAddr: 0x63D0, symBinAddr: 0x100007700, symSize: 0x30 }
  - { offsetInCU: 0x1F0DE, offset: 0x1F0DE, size: 0x8, addend: 0x0, symName: __ZNSt3__122__compressed_pair_elemINS_16__hash_node_baseIPNS_11__hash_nodeINS_17__hash_value_typeINS_12basic_stringIcNS_11char_traitsIcEENS_9allocatorIcEEEEP4NodeEEPvEEEELi0ELb0EEC2B8ue170006ENS_16__value_init_tagE, symObjAddr: 0x6400, symBinAddr: 0x100007730, symSize: 0x20 }
  - { offsetInCU: 0x1F113, offset: 0x1F113, size: 0x8, addend: 0x0, symName: __ZNSt3__122__compressed_pair_elemINS_9allocatorINS_11__hash_nodeINS_17__hash_value_typeINS_12basic_stringIcNS_11char_traitsIcEENS1_IcEEEEP4NodeEEPvEEEELi1ELb1EEC2B8ue170006ENS_16__value_init_tagE, symObjAddr: 0x6420, symBinAddr: 0x100007750, symSize: 0x20 }
  - { offsetInCU: 0x1F148, offset: 0x1F148, size: 0x8, addend: 0x0, symName: __ZNSt3__116__hash_node_baseIPNS_11__hash_nodeINS_17__hash_value_typeINS_12basic_stringIcNS_11char_traitsIcEENS_9allocatorIcEEEEP4NodeEEPvEEEC1B8ue170006Ev, symObjAddr: 0x6440, symBinAddr: 0x100007770, symSize: 0x20 }
  - { offsetInCU: 0x1F172, offset: 0x1F172, size: 0x8, addend: 0x0, symName: __ZNSt3__116__hash_node_baseIPNS_11__hash_nodeINS_17__hash_value_typeINS_12basic_stringIcNS_11char_traitsIcEENS_9allocatorIcEEEEP4NodeEEPvEEEC2B8ue170006Ev, symObjAddr: 0x6460, symBinAddr: 0x100007790, symSize: 0x20 }
  - { offsetInCU: 0x1F19C, offset: 0x1F19C, size: 0x8, addend: 0x0, symName: __ZNSt3__19allocatorINS_11__hash_nodeINS_17__hash_value_typeINS_12basic_stringIcNS_11char_traitsIcEENS0_IcEEEEP4NodeEEPvEEEC2B8ue170006Ev, symObjAddr: 0x6480, symBinAddr: 0x1000077B0, symSize: 0x20 }
  - { offsetInCU: 0x1F1C6, offset: 0x1F1C6, size: 0x8, addend: 0x0, symName: __ZNSt3__116__non_trivial_ifILb1ENS_9allocatorINS_11__hash_nodeINS_17__hash_value_typeINS_12basic_stringIcNS_11char_traitsIcEENS1_IcEEEEP4NodeEEPvEEEEEC2B8ue170006Ev, symObjAddr: 0x64A0, symBinAddr: 0x1000077D0, symSize: 0x10 }
  - { offsetInCU: 0x1F1F0, offset: 0x1F1F0, size: 0x8, addend: 0x0, symName: __ZNSt3__117__compressed_pairImNS_22__unordered_map_hasherINS_12basic_stringIcNS_11char_traitsIcEENS_9allocatorIcEEEENS_17__hash_value_typeIS7_P4NodeEENS_4hashIS7_EENS_8equal_toIS7_EELb1EEEEC2B8ue170006IiNS_18__default_init_tagEEEOT_OT0_, symObjAddr: 0x64B0, symBinAddr: 0x1000077E0, symSize: 0x40 }
  - { offsetInCU: 0x1F248, offset: 0x1F248, size: 0x8, addend: 0x0, symName: __ZNSt3__122__compressed_pair_elemINS_22__unordered_map_hasherINS_12basic_stringIcNS_11char_traitsIcEENS_9allocatorIcEEEENS_17__hash_value_typeIS7_P4NodeEENS_4hashIS7_EENS_8equal_toIS7_EELb1EEELi1ELb1EEC2B8ue170006ENS_18__default_init_tagE, symObjAddr: 0x64F0, symBinAddr: 0x100007820, symSize: 0x20 }
  - { offsetInCU: 0x1F27D, offset: 0x1F27D, size: 0x8, addend: 0x0, symName: __ZNSt3__122__unordered_map_hasherINS_12basic_stringIcNS_11char_traitsIcEENS_9allocatorIcEEEENS_17__hash_value_typeIS6_P4NodeEENS_4hashIS6_EENS_8equal_toIS6_EELb1EEC2B8ue170006Ev, symObjAddr: 0x6510, symBinAddr: 0x100007840, symSize: 0x10 }
  - { offsetInCU: 0x1F2A7, offset: 0x1F2A7, size: 0x8, addend: 0x0, symName: __ZNSt3__117__compressed_pairIfNS_21__unordered_map_equalINS_12basic_stringIcNS_11char_traitsIcEENS_9allocatorIcEEEENS_17__hash_value_typeIS7_P4NodeEENS_8equal_toIS7_EENS_4hashIS7_EELb1EEEEC2B8ue170006IfNS_18__default_init_tagEEEOT_OT0_, symObjAddr: 0x6520, symBinAddr: 0x100007850, symSize: 0x40 }
  - { offsetInCU: 0x1F2FF, offset: 0x1F2FF, size: 0x8, addend: 0x0, symName: __ZNSt3__122__compressed_pair_elemIfLi0ELb0EEC2B8ue170006IfvEEOT_, symObjAddr: 0x6560, symBinAddr: 0x100007890, symSize: 0x20 }
  - { offsetInCU: 0x1F341, offset: 0x1F341, size: 0x8, addend: 0x0, symName: __ZNSt3__122__compressed_pair_elemINS_21__unordered_map_equalINS_12basic_stringIcNS_11char_traitsIcEENS_9allocatorIcEEEENS_17__hash_value_typeIS7_P4NodeEENS_8equal_toIS7_EENS_4hashIS7_EELb1EEELi1ELb1EEC2B8ue170006ENS_18__default_init_tagE, symObjAddr: 0x6580, symBinAddr: 0x1000078B0, symSize: 0x20 }
  - { offsetInCU: 0x1F376, offset: 0x1F376, size: 0x8, addend: 0x0, symName: __ZNSt3__121__unordered_map_equalINS_12basic_stringIcNS_11char_traitsIcEENS_9allocatorIcEEEENS_17__hash_value_typeIS6_P4NodeEENS_8equal_toIS6_EENS_4hashIS6_EELb1EEC2B8ue170006Ev, symObjAddr: 0x65A0, symBinAddr: 0x1000078D0, symSize: 0x10 }
  - { offsetInCU: 0x1F3A0, offset: 0x1F3A0, size: 0x8, addend: 0x0, symName: __ZNSt3__113unordered_mapINS_12basic_stringIcNS_11char_traitsIcEENS_9allocatorIcEEEENS_6vectorI8typeEnumNS4_IS8_EEEENS_4hashIS6_EENS_8equal_toIS6_EENS4_INS_4pairIKS6_SA_EEEEEC2B8ue170006Ev, symObjAddr: 0x65B0, symBinAddr: 0x1000078E0, symSize: 0x20 }
  - { offsetInCU: 0x1F3CA, offset: 0x1F3CA, size: 0x8, addend: 0x0, symName: __ZNSt3__112__hash_tableINS_17__hash_value_typeINS_12basic_stringIcNS_11char_traitsIcEENS_9allocatorIcEEEENS_6vectorI8typeEnumNS5_IS9_EEEEEENS_22__unordered_map_hasherIS7_SC_NS_4hashIS7_EENS_8equal_toIS7_EELb1EEENS_21__unordered_map_equalIS7_SC_SH_SF_Lb1EEENS5_ISC_EEEC1Ev, symObjAddr: 0x65D0, symBinAddr: 0x100007900, symSize: 0x20 }
  - { offsetInCU: 0x1F3F6, offset: 0x1F3F6, size: 0x8, addend: 0x0, symName: __ZNSt3__112__hash_tableINS_17__hash_value_typeINS_12basic_stringIcNS_11char_traitsIcEENS_9allocatorIcEEEENS_6vectorI8typeEnumNS5_IS9_EEEEEENS_22__unordered_map_hasherIS7_SC_NS_4hashIS7_EENS_8equal_toIS7_EELb1EEENS_21__unordered_map_equalIS7_SC_SH_SF_Lb1EEENS5_ISC_EEEC2Ev, symObjAddr: 0x65F0, symBinAddr: 0x100007920, symSize: 0x80 }
  - { offsetInCU: 0x1F422, offset: 0x1F422, size: 0x8, addend: 0x0, symName: __ZNSt3__110unique_ptrIA_PNS_16__hash_node_baseIPNS_11__hash_nodeINS_17__hash_value_typeINS_12basic_stringIcNS_11char_traitsIcEENS_9allocatorIcEEEENS_6vectorI8typeEnumNS7_ISB_EEEEEEPvEEEENS_25__bucket_list_deallocatorINS7_ISJ_EEEEEC1B8ue170006ILb1EvEEv, symObjAddr: 0x6670, symBinAddr: 0x1000079A0, symSize: 0x20 }
  - { offsetInCU: 0x1F457, offset: 0x1F457, size: 0x8, addend: 0x0, symName: __ZNSt3__117__compressed_pairINS_16__hash_node_baseIPNS_11__hash_nodeINS_17__hash_value_typeINS_12basic_stringIcNS_11char_traitsIcEENS_9allocatorIcEEEENS_6vectorI8typeEnumNS7_ISB_EEEEEEPvEEEENS7_ISG_EEEC1B8ue170006ILb1EvEEv, symObjAddr: 0x6690, symBinAddr: 0x1000079C0, symSize: 0x20 }
  - { offsetInCU: 0x1F48C, offset: 0x1F48C, size: 0x8, addend: 0x0, symName: __ZNSt3__117__compressed_pairImNS_22__unordered_map_hasherINS_12basic_stringIcNS_11char_traitsIcEENS_9allocatorIcEEEENS_17__hash_value_typeIS7_NS_6vectorI8typeEnumNS5_ISA_EEEEEENS_4hashIS7_EENS_8equal_toIS7_EELb1EEEEC1B8ue170006IiNS_18__default_init_tagEEEOT_OT0_, symObjAddr: 0x66B0, symBinAddr: 0x1000079E0, symSize: 0x30 }
  - { offsetInCU: 0x1F4E4, offset: 0x1F4E4, size: 0x8, addend: 0x0, symName: __ZNSt3__117__compressed_pairIfNS_21__unordered_map_equalINS_12basic_stringIcNS_11char_traitsIcEENS_9allocatorIcEEEENS_17__hash_value_typeIS7_NS_6vectorI8typeEnumNS5_ISA_EEEEEENS_8equal_toIS7_EENS_4hashIS7_EELb1EEEEC1B8ue170006IfNS_18__default_init_tagEEEOT_OT0_, symObjAddr: 0x66E0, symBinAddr: 0x100007A10, symSize: 0x30 }
  - { offsetInCU: 0x1F53C, offset: 0x1F53C, size: 0x8, addend: 0x0, symName: __ZNSt3__110unique_ptrIA_PNS_16__hash_node_baseIPNS_11__hash_nodeINS_17__hash_value_typeINS_12basic_stringIcNS_11char_traitsIcEENS_9allocatorIcEEEENS_6vectorI8typeEnumNS7_ISB_EEEEEEPvEEEENS_25__bucket_list_deallocatorINS7_ISJ_EEEEEC2B8ue170006ILb1EvEEv, symObjAddr: 0x6710, symBinAddr: 0x100007A40, symSize: 0x30 }
  - { offsetInCU: 0x1F571, offset: 0x1F571, size: 0x8, addend: 0x0, symName: __ZNSt3__117__compressed_pairIPPNS_16__hash_node_baseIPNS_11__hash_nodeINS_17__hash_value_typeINS_12basic_stringIcNS_11char_traitsIcEENS_9allocatorIcEEEENS_6vectorI8typeEnumNS7_ISB_EEEEEEPvEEEENS_25__bucket_list_deallocatorINS7_ISJ_EEEEEC1B8ue170006INS_16__value_init_tagESQ_EEOT_OT0_, symObjAddr: 0x6740, symBinAddr: 0x100007A70, symSize: 0x30 }
  - { offsetInCU: 0x1F5C9, offset: 0x1F5C9, size: 0x8, addend: 0x0, symName: __ZNSt3__117__compressed_pairIPPNS_16__hash_node_baseIPNS_11__hash_nodeINS_17__hash_value_typeINS_12basic_stringIcNS_11char_traitsIcEENS_9allocatorIcEEEENS_6vectorI8typeEnumNS7_ISB_EEEEEEPvEEEENS_25__bucket_list_deallocatorINS7_ISJ_EEEEEC2B8ue170006INS_16__value_init_tagESQ_EEOT_OT0_, symObjAddr: 0x6770, symBinAddr: 0x100007AA0, symSize: 0x40 }
  - { offsetInCU: 0x1F621, offset: 0x1F621, size: 0x8, addend: 0x0, symName: __ZNSt3__122__compressed_pair_elemIPPNS_16__hash_node_baseIPNS_11__hash_nodeINS_17__hash_value_typeINS_12basic_stringIcNS_11char_traitsIcEENS_9allocatorIcEEEENS_6vectorI8typeEnumNS7_ISB_EEEEEEPvEEEELi0ELb0EEC2B8ue170006ENS_16__value_init_tagE, symObjAddr: 0x67B0, symBinAddr: 0x100007AE0, symSize: 0x20 }
  - { offsetInCU: 0x1F656, offset: 0x1F656, size: 0x8, addend: 0x0, symName: __ZNSt3__122__compressed_pair_elemINS_25__bucket_list_deallocatorINS_9allocatorIPNS_16__hash_node_baseIPNS_11__hash_nodeINS_17__hash_value_typeINS_12basic_stringIcNS_11char_traitsIcEENS2_IcEEEENS_6vectorI8typeEnumNS2_ISC_EEEEEEPvEEEEEEEELi1ELb0EEC2B8ue170006ENS_16__value_init_tagE, symObjAddr: 0x67D0, symBinAddr: 0x100007B00, symSize: 0x20 }
  - { offsetInCU: 0x1F68B, offset: 0x1F68B, size: 0x8, addend: 0x0, symName: __ZNSt3__125__bucket_list_deallocatorINS_9allocatorIPNS_16__hash_node_baseIPNS_11__hash_nodeINS_17__hash_value_typeINS_12basic_stringIcNS_11char_traitsIcEENS1_IcEEEENS_6vectorI8typeEnumNS1_ISB_EEEEEEPvEEEEEEEC1B8ue170006Ev, symObjAddr: 0x67F0, symBinAddr: 0x100007B20, symSize: 0x20 }
  - { offsetInCU: 0x1F6B5, offset: 0x1F6B5, size: 0x8, addend: 0x0, symName: __ZNSt3__125__bucket_list_deallocatorINS_9allocatorIPNS_16__hash_node_baseIPNS_11__hash_nodeINS_17__hash_value_typeINS_12basic_stringIcNS_11char_traitsIcEENS1_IcEEEENS_6vectorI8typeEnumNS1_ISB_EEEEEEPvEEEEEEEC2B8ue170006Ev, symObjAddr: 0x6810, symBinAddr: 0x100007B40, symSize: 0x40 }
  - { offsetInCU: 0x1F6DF, offset: 0x1F6DF, size: 0x8, addend: 0x0, symName: __ZNSt3__117__compressed_pairImNS_9allocatorIPNS_16__hash_node_baseIPNS_11__hash_nodeINS_17__hash_value_typeINS_12basic_stringIcNS_11char_traitsIcEENS1_IcEEEENS_6vectorI8typeEnumNS1_ISB_EEEEEEPvEEEEEEEC1B8ue170006IiNS_18__default_init_tagEEEOT_OT0_, symObjAddr: 0x6850, symBinAddr: 0x100007B80, symSize: 0x30 }
  - { offsetInCU: 0x1F737, offset: 0x1F737, size: 0x8, addend: 0x0, symName: __ZNSt3__117__compressed_pairImNS_9allocatorIPNS_16__hash_node_baseIPNS_11__hash_nodeINS_17__hash_value_typeINS_12basic_stringIcNS_11char_traitsIcEENS1_IcEEEENS_6vectorI8typeEnumNS1_ISB_EEEEEEPvEEEEEEEC2B8ue170006IiNS_18__default_init_tagEEEOT_OT0_, symObjAddr: 0x6880, symBinAddr: 0x100007BB0, symSize: 0x40 }
  - { offsetInCU: 0x1F78F, offset: 0x1F78F, size: 0x8, addend: 0x0, symName: __ZNSt3__122__compressed_pair_elemINS_9allocatorIPNS_16__hash_node_baseIPNS_11__hash_nodeINS_17__hash_value_typeINS_12basic_stringIcNS_11char_traitsIcEENS1_IcEEEENS_6vectorI8typeEnumNS1_ISB_EEEEEEPvEEEEEELi1ELb1EEC2B8ue170006ENS_18__default_init_tagE, symObjAddr: 0x68C0, symBinAddr: 0x100007BF0, symSize: 0x20 }
  - { offsetInCU: 0x1F7C4, offset: 0x1F7C4, size: 0x8, addend: 0x0, symName: __ZNSt3__19allocatorIPNS_16__hash_node_baseIPNS_11__hash_nodeINS_17__hash_value_typeINS_12basic_stringIcNS_11char_traitsIcEENS0_IcEEEENS_6vectorI8typeEnumNS0_ISA_EEEEEEPvEEEEEC2B8ue170006Ev, symObjAddr: 0x68E0, symBinAddr: 0x100007C10, symSize: 0x20 }
  - { offsetInCU: 0x1F7EE, offset: 0x1F7EE, size: 0x8, addend: 0x0, symName: __ZNSt3__116__non_trivial_ifILb1ENS_9allocatorIPNS_16__hash_node_baseIPNS_11__hash_nodeINS_17__hash_value_typeINS_12basic_stringIcNS_11char_traitsIcEENS1_IcEEEENS_6vectorI8typeEnumNS1_ISB_EEEEEEPvEEEEEEEC2B8ue170006Ev, symObjAddr: 0x6900, symBinAddr: 0x100007C30, symSize: 0x10 }
  - { offsetInCU: 0x1F818, offset: 0x1F818, size: 0x8, addend: 0x0, symName: __ZNSt3__117__compressed_pairINS_16__hash_node_baseIPNS_11__hash_nodeINS_17__hash_value_typeINS_12basic_stringIcNS_11char_traitsIcEENS_9allocatorIcEEEENS_6vectorI8typeEnumNS7_ISB_EEEEEEPvEEEENS7_ISG_EEEC2B8ue170006ILb1EvEEv, symObjAddr: 0x6910, symBinAddr: 0x100007C40, symSize: 0x30 }
  - { offsetInCU: 0x1F84D, offset: 0x1F84D, size: 0x8, addend: 0x0, symName: __ZNSt3__122__compressed_pair_elemINS_16__hash_node_baseIPNS_11__hash_nodeINS_17__hash_value_typeINS_12basic_stringIcNS_11char_traitsIcEENS_9allocatorIcEEEENS_6vectorI8typeEnumNS7_ISB_EEEEEEPvEEEELi0ELb0EEC2B8ue170006ENS_16__value_init_tagE, symObjAddr: 0x6940, symBinAddr: 0x100007C70, symSize: 0x20 }
  - { offsetInCU: 0x1F882, offset: 0x1F882, size: 0x8, addend: 0x0, symName: __ZNSt3__122__compressed_pair_elemINS_9allocatorINS_11__hash_nodeINS_17__hash_value_typeINS_12basic_stringIcNS_11char_traitsIcEENS1_IcEEEENS_6vectorI8typeEnumNS1_ISA_EEEEEEPvEEEELi1ELb1EEC2B8ue170006ENS_16__value_init_tagE, symObjAddr: 0x6960, symBinAddr: 0x100007C90, symSize: 0x20 }
  - { offsetInCU: 0x1F8B7, offset: 0x1F8B7, size: 0x8, addend: 0x0, symName: __ZNSt3__116__hash_node_baseIPNS_11__hash_nodeINS_17__hash_value_typeINS_12basic_stringIcNS_11char_traitsIcEENS_9allocatorIcEEEENS_6vectorI8typeEnumNS6_ISA_EEEEEEPvEEEC1B8ue170006Ev, symObjAddr: 0x6980, symBinAddr: 0x100007CB0, symSize: 0x20 }
  - { offsetInCU: 0x1F8E1, offset: 0x1F8E1, size: 0x8, addend: 0x0, symName: __ZNSt3__116__hash_node_baseIPNS_11__hash_nodeINS_17__hash_value_typeINS_12basic_stringIcNS_11char_traitsIcEENS_9allocatorIcEEEENS_6vectorI8typeEnumNS6_ISA_EEEEEEPvEEEC2B8ue170006Ev, symObjAddr: 0x69A0, symBinAddr: 0x100007CD0, symSize: 0x20 }
  - { offsetInCU: 0x1F90B, offset: 0x1F90B, size: 0x8, addend: 0x0, symName: __ZNSt3__19allocatorINS_11__hash_nodeINS_17__hash_value_typeINS_12basic_stringIcNS_11char_traitsIcEENS0_IcEEEENS_6vectorI8typeEnumNS0_IS9_EEEEEEPvEEEC2B8ue170006Ev, symObjAddr: 0x69C0, symBinAddr: 0x100007CF0, symSize: 0x20 }
  - { offsetInCU: 0x1F935, offset: 0x1F935, size: 0x8, addend: 0x0, symName: __ZNSt3__116__non_trivial_ifILb1ENS_9allocatorINS_11__hash_nodeINS_17__hash_value_typeINS_12basic_stringIcNS_11char_traitsIcEENS1_IcEEEENS_6vectorI8typeEnumNS1_ISA_EEEEEEPvEEEEEC2B8ue170006Ev, symObjAddr: 0x69E0, symBinAddr: 0x100007D10, symSize: 0x10 }
  - { offsetInCU: 0x1F95F, offset: 0x1F95F, size: 0x8, addend: 0x0, symName: __ZNSt3__117__compressed_pairImNS_22__unordered_map_hasherINS_12basic_stringIcNS_11char_traitsIcEENS_9allocatorIcEEEENS_17__hash_value_typeIS7_NS_6vectorI8typeEnumNS5_ISA_EEEEEENS_4hashIS7_EENS_8equal_toIS7_EELb1EEEEC2B8ue170006IiNS_18__default_init_tagEEEOT_OT0_, symObjAddr: 0x69F0, symBinAddr: 0x100007D20, symSize: 0x40 }
  - { offsetInCU: 0x1F9B7, offset: 0x1F9B7, size: 0x8, addend: 0x0, symName: __ZNSt3__122__compressed_pair_elemINS_22__unordered_map_hasherINS_12basic_stringIcNS_11char_traitsIcEENS_9allocatorIcEEEENS_17__hash_value_typeIS7_NS_6vectorI8typeEnumNS5_ISA_EEEEEENS_4hashIS7_EENS_8equal_toIS7_EELb1EEELi1ELb1EEC2B8ue170006ENS_18__default_init_tagE, symObjAddr: 0x6A30, symBinAddr: 0x100007D60, symSize: 0x20 }
  - { offsetInCU: 0x1F9EC, offset: 0x1F9EC, size: 0x8, addend: 0x0, symName: __ZNSt3__122__unordered_map_hasherINS_12basic_stringIcNS_11char_traitsIcEENS_9allocatorIcEEEENS_17__hash_value_typeIS6_NS_6vectorI8typeEnumNS4_IS9_EEEEEENS_4hashIS6_EENS_8equal_toIS6_EELb1EEC2B8ue170006Ev, symObjAddr: 0x6A50, symBinAddr: 0x100007D80, symSize: 0x10 }
  - { offsetInCU: 0x1FA16, offset: 0x1FA16, size: 0x8, addend: 0x0, symName: __ZNSt3__117__compressed_pairIfNS_21__unordered_map_equalINS_12basic_stringIcNS_11char_traitsIcEENS_9allocatorIcEEEENS_17__hash_value_typeIS7_NS_6vectorI8typeEnumNS5_ISA_EEEEEENS_8equal_toIS7_EENS_4hashIS7_EELb1EEEEC2B8ue170006IfNS_18__default_init_tagEEEOT_OT0_, symObjAddr: 0x6A60, symBinAddr: 0x100007D90, symSize: 0x40 }
  - { offsetInCU: 0x1FA6E, offset: 0x1FA6E, size: 0x8, addend: 0x0, symName: __ZNSt3__122__compressed_pair_elemINS_21__unordered_map_equalINS_12basic_stringIcNS_11char_traitsIcEENS_9allocatorIcEEEENS_17__hash_value_typeIS7_NS_6vectorI8typeEnumNS5_ISA_EEEEEENS_8equal_toIS7_EENS_4hashIS7_EELb1EEELi1ELb1EEC2B8ue170006ENS_18__default_init_tagE, symObjAddr: 0x6AA0, symBinAddr: 0x100007DD0, symSize: 0x20 }
  - { offsetInCU: 0x1FAA3, offset: 0x1FAA3, size: 0x8, addend: 0x0, symName: __ZNSt3__121__unordered_map_equalINS_12basic_stringIcNS_11char_traitsIcEENS_9allocatorIcEEEENS_17__hash_value_typeIS6_NS_6vectorI8typeEnumNS4_IS9_EEEEEENS_8equal_toIS6_EENS_4hashIS6_EELb1EEC2B8ue170006Ev, symObjAddr: 0x6AC0, symBinAddr: 0x100007DF0, symSize: 0x10 }
  - { offsetInCU: 0x1FACD, offset: 0x1FACD, size: 0x8, addend: 0x0, symName: __ZNSt3__113unordered_mapINS_12basic_stringIcNS_11char_traitsIcEENS_9allocatorIcEEEEbNS_4hashIS6_EENS_8equal_toIS6_EENS4_INS_4pairIKS6_bEEEEEC2B8ue170006Ev, symObjAddr: 0x6AD0, symBinAddr: 0x100007E00, symSize: 0x20 }
  - { offsetInCU: 0x1FAF7, offset: 0x1FAF7, size: 0x8, addend: 0x0, symName: __ZNSt3__112__hash_tableINS_17__hash_value_typeINS_12basic_stringIcNS_11char_traitsIcEENS_9allocatorIcEEEEbEENS_22__unordered_map_hasherIS7_S8_NS_4hashIS7_EENS_8equal_toIS7_EELb1EEENS_21__unordered_map_equalIS7_S8_SD_SB_Lb1EEENS5_IS8_EEEC1Ev, symObjAddr: 0x6AF0, symBinAddr: 0x100007E20, symSize: 0x20 }
  - { offsetInCU: 0x1FB23, offset: 0x1FB23, size: 0x8, addend: 0x0, symName: __ZNSt3__112__hash_tableINS_17__hash_value_typeINS_12basic_stringIcNS_11char_traitsIcEENS_9allocatorIcEEEEbEENS_22__unordered_map_hasherIS7_S8_NS_4hashIS7_EENS_8equal_toIS7_EELb1EEENS_21__unordered_map_equalIS7_S8_SD_SB_Lb1EEENS5_IS8_EEEC2Ev, symObjAddr: 0x6B10, symBinAddr: 0x100007E40, symSize: 0x80 }
  - { offsetInCU: 0x1FB4F, offset: 0x1FB4F, size: 0x8, addend: 0x0, symName: __ZNSt3__110unique_ptrIA_PNS_16__hash_node_baseIPNS_11__hash_nodeINS_17__hash_value_typeINS_12basic_stringIcNS_11char_traitsIcEENS_9allocatorIcEEEEbEEPvEEEENS_25__bucket_list_deallocatorINS7_ISF_EEEEEC1B8ue170006ILb1EvEEv, symObjAddr: 0x6B90, symBinAddr: 0x100007EC0, symSize: 0x20 }
  - { offsetInCU: 0x1FB84, offset: 0x1FB84, size: 0x8, addend: 0x0, symName: __ZNSt3__117__compressed_pairINS_16__hash_node_baseIPNS_11__hash_nodeINS_17__hash_value_typeINS_12basic_stringIcNS_11char_traitsIcEENS_9allocatorIcEEEEbEEPvEEEENS7_ISC_EEEC1B8ue170006ILb1EvEEv, symObjAddr: 0x6BB0, symBinAddr: 0x100007EE0, symSize: 0x20 }
  - { offsetInCU: 0x1FBB9, offset: 0x1FBB9, size: 0x8, addend: 0x0, symName: __ZNSt3__117__compressed_pairImNS_22__unordered_map_hasherINS_12basic_stringIcNS_11char_traitsIcEENS_9allocatorIcEEEENS_17__hash_value_typeIS7_bEENS_4hashIS7_EENS_8equal_toIS7_EELb1EEEEC1B8ue170006IiNS_18__default_init_tagEEEOT_OT0_, symObjAddr: 0x6BD0, symBinAddr: 0x100007F00, symSize: 0x30 }
  - { offsetInCU: 0x1FC11, offset: 0x1FC11, size: 0x8, addend: 0x0, symName: __ZNSt3__117__compressed_pairIfNS_21__unordered_map_equalINS_12basic_stringIcNS_11char_traitsIcEENS_9allocatorIcEEEENS_17__hash_value_typeIS7_bEENS_8equal_toIS7_EENS_4hashIS7_EELb1EEEEC1B8ue170006IfNS_18__default_init_tagEEEOT_OT0_, symObjAddr: 0x6C00, symBinAddr: 0x100007F30, symSize: 0x30 }
  - { offsetInCU: 0x1FC69, offset: 0x1FC69, size: 0x8, addend: 0x0, symName: __ZNSt3__110unique_ptrIA_PNS_16__hash_node_baseIPNS_11__hash_nodeINS_17__hash_value_typeINS_12basic_stringIcNS_11char_traitsIcEENS_9allocatorIcEEEEbEEPvEEEENS_25__bucket_list_deallocatorINS7_ISF_EEEEEC2B8ue170006ILb1EvEEv, symObjAddr: 0x6C30, symBinAddr: 0x100007F60, symSize: 0x30 }
  - { offsetInCU: 0x1FC9E, offset: 0x1FC9E, size: 0x8, addend: 0x0, symName: __ZNSt3__117__compressed_pairIPPNS_16__hash_node_baseIPNS_11__hash_nodeINS_17__hash_value_typeINS_12basic_stringIcNS_11char_traitsIcEENS_9allocatorIcEEEEbEEPvEEEENS_25__bucket_list_deallocatorINS7_ISF_EEEEEC1B8ue170006INS_16__value_init_tagESM_EEOT_OT0_, symObjAddr: 0x6C60, symBinAddr: 0x100007F90, symSize: 0x30 }
  - { offsetInCU: 0x1FCF6, offset: 0x1FCF6, size: 0x8, addend: 0x0, symName: __ZNSt3__117__compressed_pairIPPNS_16__hash_node_baseIPNS_11__hash_nodeINS_17__hash_value_typeINS_12basic_stringIcNS_11char_traitsIcEENS_9allocatorIcEEEEbEEPvEEEENS_25__bucket_list_deallocatorINS7_ISF_EEEEEC2B8ue170006INS_16__value_init_tagESM_EEOT_OT0_, symObjAddr: 0x6C90, symBinAddr: 0x100007FC0, symSize: 0x40 }
  - { offsetInCU: 0x1FD4E, offset: 0x1FD4E, size: 0x8, addend: 0x0, symName: __ZNSt3__122__compressed_pair_elemIPPNS_16__hash_node_baseIPNS_11__hash_nodeINS_17__hash_value_typeINS_12basic_stringIcNS_11char_traitsIcEENS_9allocatorIcEEEEbEEPvEEEELi0ELb0EEC2B8ue170006ENS_16__value_init_tagE, symObjAddr: 0x6CD0, symBinAddr: 0x100008000, symSize: 0x20 }
  - { offsetInCU: 0x1FD83, offset: 0x1FD83, size: 0x8, addend: 0x0, symName: __ZNSt3__122__compressed_pair_elemINS_25__bucket_list_deallocatorINS_9allocatorIPNS_16__hash_node_baseIPNS_11__hash_nodeINS_17__hash_value_typeINS_12basic_stringIcNS_11char_traitsIcEENS2_IcEEEEbEEPvEEEEEEEELi1ELb0EEC2B8ue170006ENS_16__value_init_tagE, symObjAddr: 0x6CF0, symBinAddr: 0x100008020, symSize: 0x20 }
  - { offsetInCU: 0x1FDB8, offset: 0x1FDB8, size: 0x8, addend: 0x0, symName: __ZNSt3__125__bucket_list_deallocatorINS_9allocatorIPNS_16__hash_node_baseIPNS_11__hash_nodeINS_17__hash_value_typeINS_12basic_stringIcNS_11char_traitsIcEENS1_IcEEEEbEEPvEEEEEEEC1B8ue170006Ev, symObjAddr: 0x6D10, symBinAddr: 0x100008040, symSize: 0x20 }
  - { offsetInCU: 0x1FDE2, offset: 0x1FDE2, size: 0x8, addend: 0x0, symName: __ZNSt3__125__bucket_list_deallocatorINS_9allocatorIPNS_16__hash_node_baseIPNS_11__hash_nodeINS_17__hash_value_typeINS_12basic_stringIcNS_11char_traitsIcEENS1_IcEEEEbEEPvEEEEEEEC2B8ue170006Ev, symObjAddr: 0x6D30, symBinAddr: 0x100008060, symSize: 0x40 }
  - { offsetInCU: 0x1FE0C, offset: 0x1FE0C, size: 0x8, addend: 0x0, symName: __ZNSt3__117__compressed_pairImNS_9allocatorIPNS_16__hash_node_baseIPNS_11__hash_nodeINS_17__hash_value_typeINS_12basic_stringIcNS_11char_traitsIcEENS1_IcEEEEbEEPvEEEEEEEC1B8ue170006IiNS_18__default_init_tagEEEOT_OT0_, symObjAddr: 0x6D70, symBinAddr: 0x1000080A0, symSize: 0x30 }
  - { offsetInCU: 0x1FE64, offset: 0x1FE64, size: 0x8, addend: 0x0, symName: __ZNSt3__117__compressed_pairImNS_9allocatorIPNS_16__hash_node_baseIPNS_11__hash_nodeINS_17__hash_value_typeINS_12basic_stringIcNS_11char_traitsIcEENS1_IcEEEEbEEPvEEEEEEEC2B8ue170006IiNS_18__default_init_tagEEEOT_OT0_, symObjAddr: 0x6DA0, symBinAddr: 0x1000080D0, symSize: 0x40 }
  - { offsetInCU: 0x1FEBC, offset: 0x1FEBC, size: 0x8, addend: 0x0, symName: __ZNSt3__122__compressed_pair_elemINS_9allocatorIPNS_16__hash_node_baseIPNS_11__hash_nodeINS_17__hash_value_typeINS_12basic_stringIcNS_11char_traitsIcEENS1_IcEEEEbEEPvEEEEEELi1ELb1EEC2B8ue170006ENS_18__default_init_tagE, symObjAddr: 0x6DE0, symBinAddr: 0x100008110, symSize: 0x20 }
  - { offsetInCU: 0x1FEF1, offset: 0x1FEF1, size: 0x8, addend: 0x0, symName: __ZNSt3__19allocatorIPNS_16__hash_node_baseIPNS_11__hash_nodeINS_17__hash_value_typeINS_12basic_stringIcNS_11char_traitsIcEENS0_IcEEEEbEEPvEEEEEC2B8ue170006Ev, symObjAddr: 0x6E00, symBinAddr: 0x100008130, symSize: 0x20 }
  - { offsetInCU: 0x1FF1B, offset: 0x1FF1B, size: 0x8, addend: 0x0, symName: __ZNSt3__116__non_trivial_ifILb1ENS_9allocatorIPNS_16__hash_node_baseIPNS_11__hash_nodeINS_17__hash_value_typeINS_12basic_stringIcNS_11char_traitsIcEENS1_IcEEEEbEEPvEEEEEEEC2B8ue170006Ev, symObjAddr: 0x6E20, symBinAddr: 0x100008150, symSize: 0x10 }
  - { offsetInCU: 0x1FF45, offset: 0x1FF45, size: 0x8, addend: 0x0, symName: __ZNSt3__117__compressed_pairINS_16__hash_node_baseIPNS_11__hash_nodeINS_17__hash_value_typeINS_12basic_stringIcNS_11char_traitsIcEENS_9allocatorIcEEEEbEEPvEEEENS7_ISC_EEEC2B8ue170006ILb1EvEEv, symObjAddr: 0x6E30, symBinAddr: 0x100008160, symSize: 0x30 }
  - { offsetInCU: 0x1FF7A, offset: 0x1FF7A, size: 0x8, addend: 0x0, symName: __ZNSt3__122__compressed_pair_elemINS_16__hash_node_baseIPNS_11__hash_nodeINS_17__hash_value_typeINS_12basic_stringIcNS_11char_traitsIcEENS_9allocatorIcEEEEbEEPvEEEELi0ELb0EEC2B8ue170006ENS_16__value_init_tagE, symObjAddr: 0x6E60, symBinAddr: 0x100008190, symSize: 0x20 }
  - { offsetInCU: 0x1FFAF, offset: 0x1FFAF, size: 0x8, addend: 0x0, symName: __ZNSt3__122__compressed_pair_elemINS_9allocatorINS_11__hash_nodeINS_17__hash_value_typeINS_12basic_stringIcNS_11char_traitsIcEENS1_IcEEEEbEEPvEEEELi1ELb1EEC2B8ue170006ENS_16__value_init_tagE, symObjAddr: 0x6E80, symBinAddr: 0x1000081B0, symSize: 0x20 }
  - { offsetInCU: 0x1FFE4, offset: 0x1FFE4, size: 0x8, addend: 0x0, symName: __ZNSt3__116__hash_node_baseIPNS_11__hash_nodeINS_17__hash_value_typeINS_12basic_stringIcNS_11char_traitsIcEENS_9allocatorIcEEEEbEEPvEEEC1B8ue170006Ev, symObjAddr: 0x6EA0, symBinAddr: 0x1000081D0, symSize: 0x20 }
  - { offsetInCU: 0x2000E, offset: 0x2000E, size: 0x8, addend: 0x0, symName: __ZNSt3__116__hash_node_baseIPNS_11__hash_nodeINS_17__hash_value_typeINS_12basic_stringIcNS_11char_traitsIcEENS_9allocatorIcEEEEbEEPvEEEC2B8ue170006Ev, symObjAddr: 0x6EC0, symBinAddr: 0x1000081F0, symSize: 0x20 }
  - { offsetInCU: 0x20038, offset: 0x20038, size: 0x8, addend: 0x0, symName: __ZNSt3__19allocatorINS_11__hash_nodeINS_17__hash_value_typeINS_12basic_stringIcNS_11char_traitsIcEENS0_IcEEEEbEEPvEEEC2B8ue170006Ev, symObjAddr: 0x6EE0, symBinAddr: 0x100008210, symSize: 0x20 }
  - { offsetInCU: 0x20062, offset: 0x20062, size: 0x8, addend: 0x0, symName: __ZNSt3__116__non_trivial_ifILb1ENS_9allocatorINS_11__hash_nodeINS_17__hash_value_typeINS_12basic_stringIcNS_11char_traitsIcEENS1_IcEEEEbEEPvEEEEEC2B8ue170006Ev, symObjAddr: 0x6F00, symBinAddr: 0x100008230, symSize: 0x10 }
  - { offsetInCU: 0x2008C, offset: 0x2008C, size: 0x8, addend: 0x0, symName: __ZNSt3__117__compressed_pairImNS_22__unordered_map_hasherINS_12basic_stringIcNS_11char_traitsIcEENS_9allocatorIcEEEENS_17__hash_value_typeIS7_bEENS_4hashIS7_EENS_8equal_toIS7_EELb1EEEEC2B8ue170006IiNS_18__default_init_tagEEEOT_OT0_, symObjAddr: 0x6F10, symBinAddr: 0x100008240, symSize: 0x40 }
  - { offsetInCU: 0x200E4, offset: 0x200E4, size: 0x8, addend: 0x0, symName: __ZNSt3__122__compressed_pair_elemINS_22__unordered_map_hasherINS_12basic_stringIcNS_11char_traitsIcEENS_9allocatorIcEEEENS_17__hash_value_typeIS7_bEENS_4hashIS7_EENS_8equal_toIS7_EELb1EEELi1ELb1EEC2B8ue170006ENS_18__default_init_tagE, symObjAddr: 0x6F50, symBinAddr: 0x100008280, symSize: 0x20 }
  - { offsetInCU: 0x20119, offset: 0x20119, size: 0x8, addend: 0x0, symName: __ZNSt3__122__unordered_map_hasherINS_12basic_stringIcNS_11char_traitsIcEENS_9allocatorIcEEEENS_17__hash_value_typeIS6_bEENS_4hashIS6_EENS_8equal_toIS6_EELb1EEC2B8ue170006Ev, symObjAddr: 0x6F70, symBinAddr: 0x1000082A0, symSize: 0x10 }
  - { offsetInCU: 0x20143, offset: 0x20143, size: 0x8, addend: 0x0, symName: __ZNSt3__117__compressed_pairIfNS_21__unordered_map_equalINS_12basic_stringIcNS_11char_traitsIcEENS_9allocatorIcEEEENS_17__hash_value_typeIS7_bEENS_8equal_toIS7_EENS_4hashIS7_EELb1EEEEC2B8ue170006IfNS_18__default_init_tagEEEOT_OT0_, symObjAddr: 0x6F80, symBinAddr: 0x1000082B0, symSize: 0x40 }
  - { offsetInCU: 0x2019B, offset: 0x2019B, size: 0x8, addend: 0x0, symName: __ZNSt3__122__compressed_pair_elemINS_21__unordered_map_equalINS_12basic_stringIcNS_11char_traitsIcEENS_9allocatorIcEEEENS_17__hash_value_typeIS7_bEENS_8equal_toIS7_EENS_4hashIS7_EELb1EEELi1ELb1EEC2B8ue170006ENS_18__default_init_tagE, symObjAddr: 0x6FC0, symBinAddr: 0x1000082F0, symSize: 0x20 }
  - { offsetInCU: 0x201D0, offset: 0x201D0, size: 0x8, addend: 0x0, symName: __ZNSt3__121__unordered_map_equalINS_12basic_stringIcNS_11char_traitsIcEENS_9allocatorIcEEEENS_17__hash_value_typeIS6_bEENS_8equal_toIS6_EENS_4hashIS6_EELb1EEC2B8ue170006Ev, symObjAddr: 0x6FE0, symBinAddr: 0x100008310, symSize: 0x10 }
  - { offsetInCU: 0x201FA, offset: 0x201FA, size: 0x8, addend: 0x0, symName: __ZN4NodeC2Ev, symObjAddr: 0x6FF0, symBinAddr: 0x100008320, symSize: 0x30 }
  - { offsetInCU: 0x20226, offset: 0x20226, size: 0x8, addend: 0x0, symName: __ZNSt3__113unordered_mapINS_12basic_stringIcNS_11char_traitsIcEENS_9allocatorIcEEEENS_6vectorIS6_NS4_IS6_EEEENS_4hashIS6_EENS_8equal_toIS6_EENS4_INS_4pairIKS6_S9_EEEEEC1B8ue170006Ev, symObjAddr: 0x7020, symBinAddr: 0x100008350, symSize: 0x20 }
  - { offsetInCU: 0x20250, offset: 0x20250, size: 0x8, addend: 0x0, symName: __ZNSt3__16vectorIP4NodeNS_9allocatorIS2_EEEC1B8ue170006Ev, symObjAddr: 0x7040, symBinAddr: 0x100008370, symSize: 0x20 }
  - { offsetInCU: 0x2027A, offset: 0x2027A, size: 0x8, addend: 0x0, symName: __ZNSt3__113unordered_mapINS_12basic_stringIcNS_11char_traitsIcEENS_9allocatorIcEEEENS_6vectorIS6_NS4_IS6_EEEENS_4hashIS6_EENS_8equal_toIS6_EENS4_INS_4pairIKS6_S9_EEEEEC2B8ue170006Ev, symObjAddr: 0x7060, symBinAddr: 0x100008390, symSize: 0x20 }
  - { offsetInCU: 0x202A4, offset: 0x202A4, size: 0x8, addend: 0x0, symName: __ZNSt3__112__hash_tableINS_17__hash_value_typeINS_12basic_stringIcNS_11char_traitsIcEENS_9allocatorIcEEEENS_6vectorIS7_NS5_IS7_EEEEEENS_22__unordered_map_hasherIS7_SB_NS_4hashIS7_EENS_8equal_toIS7_EELb1EEENS_21__unordered_map_equalIS7_SB_SG_SE_Lb1EEENS5_ISB_EEEC1Ev, symObjAddr: 0x7080, symBinAddr: 0x1000083B0, symSize: 0x20 }
  - { offsetInCU: 0x202D0, offset: 0x202D0, size: 0x8, addend: 0x0, symName: __ZNSt3__112__hash_tableINS_17__hash_value_typeINS_12basic_stringIcNS_11char_traitsIcEENS_9allocatorIcEEEENS_6vectorIS7_NS5_IS7_EEEEEENS_22__unordered_map_hasherIS7_SB_NS_4hashIS7_EENS_8equal_toIS7_EELb1EEENS_21__unordered_map_equalIS7_SB_SG_SE_Lb1EEENS5_ISB_EEEC2Ev, symObjAddr: 0x70A0, symBinAddr: 0x1000083D0, symSize: 0x80 }
  - { offsetInCU: 0x202FC, offset: 0x202FC, size: 0x8, addend: 0x0, symName: __ZNSt3__110unique_ptrIA_PNS_16__hash_node_baseIPNS_11__hash_nodeINS_17__hash_value_typeINS_12basic_stringIcNS_11char_traitsIcEENS_9allocatorIcEEEENS_6vectorIS9_NS7_IS9_EEEEEEPvEEEENS_25__bucket_list_deallocatorINS7_ISI_EEEEEC1B8ue170006ILb1EvEEv, symObjAddr: 0x7120, symBinAddr: 0x100008450, symSize: 0x20 }
  - { offsetInCU: 0x20331, offset: 0x20331, size: 0x8, addend: 0x0, symName: __ZNSt3__117__compressed_pairINS_16__hash_node_baseIPNS_11__hash_nodeINS_17__hash_value_typeINS_12basic_stringIcNS_11char_traitsIcEENS_9allocatorIcEEEENS_6vectorIS9_NS7_IS9_EEEEEEPvEEEENS7_ISF_EEEC1B8ue170006ILb1EvEEv, symObjAddr: 0x7140, symBinAddr: 0x100008470, symSize: 0x20 }
  - { offsetInCU: 0x20366, offset: 0x20366, size: 0x8, addend: 0x0, symName: __ZNSt3__117__compressed_pairImNS_22__unordered_map_hasherINS_12basic_stringIcNS_11char_traitsIcEENS_9allocatorIcEEEENS_17__hash_value_typeIS7_NS_6vectorIS7_NS5_IS7_EEEEEENS_4hashIS7_EENS_8equal_toIS7_EELb1EEEEC1B8ue170006IiNS_18__default_init_tagEEEOT_OT0_, symObjAddr: 0x7160, symBinAddr: 0x100008490, symSize: 0x30 }
  - { offsetInCU: 0x203BE, offset: 0x203BE, size: 0x8, addend: 0x0, symName: __ZNSt3__117__compressed_pairIfNS_21__unordered_map_equalINS_12basic_stringIcNS_11char_traitsIcEENS_9allocatorIcEEEENS_17__hash_value_typeIS7_NS_6vectorIS7_NS5_IS7_EEEEEENS_8equal_toIS7_EENS_4hashIS7_EELb1EEEEC1B8ue170006IfNS_18__default_init_tagEEEOT_OT0_, symObjAddr: 0x7190, symBinAddr: 0x1000084C0, symSize: 0x30 }
  - { offsetInCU: 0x20416, offset: 0x20416, size: 0x8, addend: 0x0, symName: __ZNSt3__110unique_ptrIA_PNS_16__hash_node_baseIPNS_11__hash_nodeINS_17__hash_value_typeINS_12basic_stringIcNS_11char_traitsIcEENS_9allocatorIcEEEENS_6vectorIS9_NS7_IS9_EEEEEEPvEEEENS_25__bucket_list_deallocatorINS7_ISI_EEEEEC2B8ue170006ILb1EvEEv, symObjAddr: 0x71C0, symBinAddr: 0x1000084F0, symSize: 0x30 }
  - { offsetInCU: 0x2044B, offset: 0x2044B, size: 0x8, addend: 0x0, symName: __ZNSt3__117__compressed_pairIPPNS_16__hash_node_baseIPNS_11__hash_nodeINS_17__hash_value_typeINS_12basic_stringIcNS_11char_traitsIcEENS_9allocatorIcEEEENS_6vectorIS9_NS7_IS9_EEEEEEPvEEEENS_25__bucket_list_deallocatorINS7_ISI_EEEEEC1B8ue170006INS_16__value_init_tagESP_EEOT_OT0_, symObjAddr: 0x71F0, symBinAddr: 0x100008520, symSize: 0x30 }
  - { offsetInCU: 0x204A3, offset: 0x204A3, size: 0x8, addend: 0x0, symName: __ZNSt3__117__compressed_pairIPPNS_16__hash_node_baseIPNS_11__hash_nodeINS_17__hash_value_typeINS_12basic_stringIcNS_11char_traitsIcEENS_9allocatorIcEEEENS_6vectorIS9_NS7_IS9_EEEEEEPvEEEENS_25__bucket_list_deallocatorINS7_ISI_EEEEEC2B8ue170006INS_16__value_init_tagESP_EEOT_OT0_, symObjAddr: 0x7220, symBinAddr: 0x100008550, symSize: 0x40 }
  - { offsetInCU: 0x204FB, offset: 0x204FB, size: 0x8, addend: 0x0, symName: __ZNSt3__122__compressed_pair_elemIPPNS_16__hash_node_baseIPNS_11__hash_nodeINS_17__hash_value_typeINS_12basic_stringIcNS_11char_traitsIcEENS_9allocatorIcEEEENS_6vectorIS9_NS7_IS9_EEEEEEPvEEEELi0ELb0EEC2B8ue170006ENS_16__value_init_tagE, symObjAddr: 0x7260, symBinAddr: 0x100008590, symSize: 0x20 }
  - { offsetInCU: 0x20530, offset: 0x20530, size: 0x8, addend: 0x0, symName: __ZNSt3__122__compressed_pair_elemINS_25__bucket_list_deallocatorINS_9allocatorIPNS_16__hash_node_baseIPNS_11__hash_nodeINS_17__hash_value_typeINS_12basic_stringIcNS_11char_traitsIcEENS2_IcEEEENS_6vectorISA_NS2_ISA_EEEEEEPvEEEEEEEELi1ELb0EEC2B8ue170006ENS_16__value_init_tagE, symObjAddr: 0x7280, symBinAddr: 0x1000085B0, symSize: 0x20 }
  - { offsetInCU: 0x20565, offset: 0x20565, size: 0x8, addend: 0x0, symName: __ZNSt3__125__bucket_list_deallocatorINS_9allocatorIPNS_16__hash_node_baseIPNS_11__hash_nodeINS_17__hash_value_typeINS_12basic_stringIcNS_11char_traitsIcEENS1_IcEEEENS_6vectorIS9_NS1_IS9_EEEEEEPvEEEEEEEC1B8ue170006Ev, symObjAddr: 0x72A0, symBinAddr: 0x1000085D0, symSize: 0x20 }
  - { offsetInCU: 0x2058F, offset: 0x2058F, size: 0x8, addend: 0x0, symName: __ZNSt3__125__bucket_list_deallocatorINS_9allocatorIPNS_16__hash_node_baseIPNS_11__hash_nodeINS_17__hash_value_typeINS_12basic_stringIcNS_11char_traitsIcEENS1_IcEEEENS_6vectorIS9_NS1_IS9_EEEEEEPvEEEEEEEC2B8ue170006Ev, symObjAddr: 0x72C0, symBinAddr: 0x1000085F0, symSize: 0x40 }
  - { offsetInCU: 0x205B9, offset: 0x205B9, size: 0x8, addend: 0x0, symName: __ZNSt3__117__compressed_pairImNS_9allocatorIPNS_16__hash_node_baseIPNS_11__hash_nodeINS_17__hash_value_typeINS_12basic_stringIcNS_11char_traitsIcEENS1_IcEEEENS_6vectorIS9_NS1_IS9_EEEEEEPvEEEEEEEC1B8ue170006IiNS_18__default_init_tagEEEOT_OT0_, symObjAddr: 0x7300, symBinAddr: 0x100008630, symSize: 0x30 }
  - { offsetInCU: 0x20611, offset: 0x20611, size: 0x8, addend: 0x0, symName: __ZNSt3__117__compressed_pairImNS_9allocatorIPNS_16__hash_node_baseIPNS_11__hash_nodeINS_17__hash_value_typeINS_12basic_stringIcNS_11char_traitsIcEENS1_IcEEEENS_6vectorIS9_NS1_IS9_EEEEEEPvEEEEEEEC2B8ue170006IiNS_18__default_init_tagEEEOT_OT0_, symObjAddr: 0x7330, symBinAddr: 0x100008660, symSize: 0x40 }
  - { offsetInCU: 0x20669, offset: 0x20669, size: 0x8, addend: 0x0, symName: __ZNSt3__122__compressed_pair_elemINS_9allocatorIPNS_16__hash_node_baseIPNS_11__hash_nodeINS_17__hash_value_typeINS_12basic_stringIcNS_11char_traitsIcEENS1_IcEEEENS_6vectorIS9_NS1_IS9_EEEEEEPvEEEEEELi1ELb1EEC2B8ue170006ENS_18__default_init_tagE, symObjAddr: 0x7370, symBinAddr: 0x1000086A0, symSize: 0x20 }
  - { offsetInCU: 0x2069E, offset: 0x2069E, size: 0x8, addend: 0x0, symName: __ZNSt3__19allocatorIPNS_16__hash_node_baseIPNS_11__hash_nodeINS_17__hash_value_typeINS_12basic_stringIcNS_11char_traitsIcEENS0_IcEEEENS_6vectorIS8_NS0_IS8_EEEEEEPvEEEEEC2B8ue170006Ev, symObjAddr: 0x7390, symBinAddr: 0x1000086C0, symSize: 0x20 }
  - { offsetInCU: 0x206C8, offset: 0x206C8, size: 0x8, addend: 0x0, symName: __ZNSt3__116__non_trivial_ifILb1ENS_9allocatorIPNS_16__hash_node_baseIPNS_11__hash_nodeINS_17__hash_value_typeINS_12basic_stringIcNS_11char_traitsIcEENS1_IcEEEENS_6vectorIS9_NS1_IS9_EEEEEEPvEEEEEEEC2B8ue170006Ev, symObjAddr: 0x73B0, symBinAddr: 0x1000086E0, symSize: 0x10 }
  - { offsetInCU: 0x206F2, offset: 0x206F2, size: 0x8, addend: 0x0, symName: __ZNSt3__117__compressed_pairINS_16__hash_node_baseIPNS_11__hash_nodeINS_17__hash_value_typeINS_12basic_stringIcNS_11char_traitsIcEENS_9allocatorIcEEEENS_6vectorIS9_NS7_IS9_EEEEEEPvEEEENS7_ISF_EEEC2B8ue170006ILb1EvEEv, symObjAddr: 0x73C0, symBinAddr: 0x1000086F0, symSize: 0x30 }
  - { offsetInCU: 0x20727, offset: 0x20727, size: 0x8, addend: 0x0, symName: __ZNSt3__122__compressed_pair_elemINS_16__hash_node_baseIPNS_11__hash_nodeINS_17__hash_value_typeINS_12basic_stringIcNS_11char_traitsIcEENS_9allocatorIcEEEENS_6vectorIS9_NS7_IS9_EEEEEEPvEEEELi0ELb0EEC2B8ue170006ENS_16__value_init_tagE, symObjAddr: 0x73F0, symBinAddr: 0x100008720, symSize: 0x20 }
  - { offsetInCU: 0x2075C, offset: 0x2075C, size: 0x8, addend: 0x0, symName: __ZNSt3__122__compressed_pair_elemINS_9allocatorINS_11__hash_nodeINS_17__hash_value_typeINS_12basic_stringIcNS_11char_traitsIcEENS1_IcEEEENS_6vectorIS8_NS1_IS8_EEEEEEPvEEEELi1ELb1EEC2B8ue170006ENS_16__value_init_tagE, symObjAddr: 0x7410, symBinAddr: 0x100008740, symSize: 0x20 }
  - { offsetInCU: 0x20791, offset: 0x20791, size: 0x8, addend: 0x0, symName: __ZNSt3__116__hash_node_baseIPNS_11__hash_nodeINS_17__hash_value_typeINS_12basic_stringIcNS_11char_traitsIcEENS_9allocatorIcEEEENS_6vectorIS8_NS6_IS8_EEEEEEPvEEEC1B8ue170006Ev, symObjAddr: 0x7430, symBinAddr: 0x100008760, symSize: 0x20 }
  - { offsetInCU: 0x207BB, offset: 0x207BB, size: 0x8, addend: 0x0, symName: __ZNSt3__116__hash_node_baseIPNS_11__hash_nodeINS_17__hash_value_typeINS_12basic_stringIcNS_11char_traitsIcEENS_9allocatorIcEEEENS_6vectorIS8_NS6_IS8_EEEEEEPvEEEC2B8ue170006Ev, symObjAddr: 0x7450, symBinAddr: 0x100008780, symSize: 0x20 }
  - { offsetInCU: 0x207E5, offset: 0x207E5, size: 0x8, addend: 0x0, symName: __ZNSt3__19allocatorINS_11__hash_nodeINS_17__hash_value_typeINS_12basic_stringIcNS_11char_traitsIcEENS0_IcEEEENS_6vectorIS7_NS0_IS7_EEEEEEPvEEEC2B8ue170006Ev, symObjAddr: 0x7470, symBinAddr: 0x1000087A0, symSize: 0x20 }
  - { offsetInCU: 0x2080F, offset: 0x2080F, size: 0x8, addend: 0x0, symName: __ZNSt3__116__non_trivial_ifILb1ENS_9allocatorINS_11__hash_nodeINS_17__hash_value_typeINS_12basic_stringIcNS_11char_traitsIcEENS1_IcEEEENS_6vectorIS8_NS1_IS8_EEEEEEPvEEEEEC2B8ue170006Ev, symObjAddr: 0x7490, symBinAddr: 0x1000087C0, symSize: 0x10 }
  - { offsetInCU: 0x20839, offset: 0x20839, size: 0x8, addend: 0x0, symName: __ZNSt3__117__compressed_pairImNS_22__unordered_map_hasherINS_12basic_stringIcNS_11char_traitsIcEENS_9allocatorIcEEEENS_17__hash_value_typeIS7_NS_6vectorIS7_NS5_IS7_EEEEEENS_4hashIS7_EENS_8equal_toIS7_EELb1EEEEC2B8ue170006IiNS_18__default_init_tagEEEOT_OT0_, symObjAddr: 0x74A0, symBinAddr: 0x1000087D0, symSize: 0x40 }
  - { offsetInCU: 0x20891, offset: 0x20891, size: 0x8, addend: 0x0, symName: __ZNSt3__122__compressed_pair_elemINS_22__unordered_map_hasherINS_12basic_stringIcNS_11char_traitsIcEENS_9allocatorIcEEEENS_17__hash_value_typeIS7_NS_6vectorIS7_NS5_IS7_EEEEEENS_4hashIS7_EENS_8equal_toIS7_EELb1EEELi1ELb1EEC2B8ue170006ENS_18__default_init_tagE, symObjAddr: 0x74E0, symBinAddr: 0x100008810, symSize: 0x20 }
  - { offsetInCU: 0x208C6, offset: 0x208C6, size: 0x8, addend: 0x0, symName: __ZNSt3__122__unordered_map_hasherINS_12basic_stringIcNS_11char_traitsIcEENS_9allocatorIcEEEENS_17__hash_value_typeIS6_NS_6vectorIS6_NS4_IS6_EEEEEENS_4hashIS6_EENS_8equal_toIS6_EELb1EEC2B8ue170006Ev, symObjAddr: 0x7500, symBinAddr: 0x100008830, symSize: 0x10 }
  - { offsetInCU: 0x208F0, offset: 0x208F0, size: 0x8, addend: 0x0, symName: __ZNSt3__117__compressed_pairIfNS_21__unordered_map_equalINS_12basic_stringIcNS_11char_traitsIcEENS_9allocatorIcEEEENS_17__hash_value_typeIS7_NS_6vectorIS7_NS5_IS7_EEEEEENS_8equal_toIS7_EENS_4hashIS7_EELb1EEEEC2B8ue170006IfNS_18__default_init_tagEEEOT_OT0_, symObjAddr: 0x7510, symBinAddr: 0x100008840, symSize: 0x40 }
  - { offsetInCU: 0x20948, offset: 0x20948, size: 0x8, addend: 0x0, symName: __ZNSt3__122__compressed_pair_elemINS_21__unordered_map_equalINS_12basic_stringIcNS_11char_traitsIcEENS_9allocatorIcEEEENS_17__hash_value_typeIS7_NS_6vectorIS7_NS5_IS7_EEEEEENS_8equal_toIS7_EENS_4hashIS7_EELb1EEELi1ELb1EEC2B8ue170006ENS_18__default_init_tagE, symObjAddr: 0x7550, symBinAddr: 0x100008880, symSize: 0x20 }
  - { offsetInCU: 0x2097D, offset: 0x2097D, size: 0x8, addend: 0x0, symName: __ZNSt3__121__unordered_map_equalINS_12basic_stringIcNS_11char_traitsIcEENS_9allocatorIcEEEENS_17__hash_value_typeIS6_NS_6vectorIS6_NS4_IS6_EEEEEENS_8equal_toIS6_EENS_4hashIS6_EELb1EEC2B8ue170006Ev, symObjAddr: 0x7570, symBinAddr: 0x1000088A0, symSize: 0x10 }
  - { offsetInCU: 0x209A7, offset: 0x209A7, size: 0x8, addend: 0x0, symName: __ZNSt3__16vectorIP4NodeNS_9allocatorIS2_EEEC2B8ue170006Ev, symObjAddr: 0x7580, symBinAddr: 0x1000088B0, symSize: 0x50 }
  - { offsetInCU: 0x209D6, offset: 0x209D6, size: 0x8, addend: 0x0, symName: __ZNSt3__117__compressed_pairIPP4NodeNS_9allocatorIS2_EEEC1B8ue170006IDnNS_18__default_init_tagEEEOT_OT0_, symObjAddr: 0x75D0, symBinAddr: 0x100008900, symSize: 0x30 }
  - { offsetInCU: 0x20A2E, offset: 0x20A2E, size: 0x8, addend: 0x0, symName: __ZNSt3__117__compressed_pairIPP4NodeNS_9allocatorIS2_EEEC2B8ue170006IDnNS_18__default_init_tagEEEOT_OT0_, symObjAddr: 0x7600, symBinAddr: 0x100008930, symSize: 0x40 }
  - { offsetInCU: 0x20A86, offset: 0x20A86, size: 0x8, addend: 0x0, symName: __ZNSt3__122__compressed_pair_elemIPP4NodeLi0ELb0EEC2B8ue170006IDnvEEOT_, symObjAddr: 0x7640, symBinAddr: 0x100008970, symSize: 0x20 }
  - { offsetInCU: 0x20AC8, offset: 0x20AC8, size: 0x8, addend: 0x0, symName: __ZNSt3__122__compressed_pair_elemINS_9allocatorIP4NodeEELi1ELb1EEC2B8ue170006ENS_18__default_init_tagE, symObjAddr: 0x7660, symBinAddr: 0x100008990, symSize: 0x20 }
  - { offsetInCU: 0x20AFD, offset: 0x20AFD, size: 0x8, addend: 0x0, symName: __ZNSt3__19allocatorIP4NodeEC2B8ue170006Ev, symObjAddr: 0x7680, symBinAddr: 0x1000089B0, symSize: 0x20 }
  - { offsetInCU: 0x20B27, offset: 0x20B27, size: 0x8, addend: 0x0, symName: __ZNSt3__116__non_trivial_ifILb1ENS_9allocatorIP4NodeEEEC2B8ue170006Ev, symObjAddr: 0x76A0, symBinAddr: 0x1000089D0, symSize: 0x10 }
  - { offsetInCU: 0x20B51, offset: 0x20B51, size: 0x8, addend: 0x0, symName: __ZNKSt3__112basic_stringIcNS_11char_traitsIcEENS_9allocatorIcEEE4dataB8ue170006Ev, symObjAddr: 0x76B0, symBinAddr: 0x1000089E0, symSize: 0x30 }
  - { offsetInCU: 0x20B77, offset: 0x20B77, size: 0x8, addend: 0x0, symName: __ZNKSt3__112basic_stringIcNS_11char_traitsIcEENS_9allocatorIcEEE13__get_pointerB8ue170006Ev, symObjAddr: 0x76F0, symBinAddr: 0x100008A20, symSize: 0x50 }
  - { offsetInCU: 0x20B9D, offset: 0x20B9D, size: 0x8, addend: 0x0, symName: __ZNKSt3__112basic_stringIcNS_11char_traitsIcEENS_9allocatorIcEEE9__is_longB8ue170006Ev, symObjAddr: 0x7740, symBinAddr: 0x100008A70, symSize: 0x30 }
  - { offsetInCU: 0x20BC3, offset: 0x20BC3, size: 0x8, addend: 0x0, symName: __ZNKSt3__112basic_stringIcNS_11char_traitsIcEENS_9allocatorIcEEE18__get_long_pointerB8ue170006Ev, symObjAddr: 0x7770, symBinAddr: 0x100008AA0, symSize: 0x20 }
  - { offsetInCU: 0x20BE9, offset: 0x20BE9, size: 0x8, addend: 0x0, symName: __ZNKSt3__112basic_stringIcNS_11char_traitsIcEENS_9allocatorIcEEE19__get_short_pointerB8ue170006Ev, symObjAddr: 0x7790, symBinAddr: 0x100008AC0, symSize: 0x30 }
  - { offsetInCU: 0x20C0F, offset: 0x20C0F, size: 0x8, addend: 0x0, symName: __ZNKSt3__117__compressed_pairINS_12basic_stringIcNS_11char_traitsIcEENS_9allocatorIcEEE5__repES5_E5firstB8ue170006Ev, symObjAddr: 0x77C0, symBinAddr: 0x100008AF0, symSize: 0x20 }
  - { offsetInCU: 0x20C35, offset: 0x20C35, size: 0x8, addend: 0x0, symName: __ZNKSt3__122__compressed_pair_elemINS_12basic_stringIcNS_11char_traitsIcEENS_9allocatorIcEEE5__repELi0ELb0EE5__getB8ue170006Ev, symObjAddr: 0x77E0, symBinAddr: 0x100008B10, symSize: 0x10 }
  - { offsetInCU: 0x20C5B, offset: 0x20C5B, size: 0x8, addend: 0x0, symName: __ZNSt3__114pointer_traitsIPKcE10pointer_toB8ue170006ERS1_, symObjAddr: 0x77F0, symBinAddr: 0x100008B20, symSize: 0x10 }
  - { offsetInCU: 0x20C7E, offset: 0x20C7E, size: 0x8, addend: 0x0, symName: __ZNSt3__16vectorI8typeEnumNS_9allocatorIS1_EEE9__end_capB8ue170006Ev, symObjAddr: 0x7800, symBinAddr: 0x100008B30, symSize: 0x20 }
  - { offsetInCU: 0x20CA4, offset: 0x20CA4, size: 0x8, addend: 0x0, symName: __ZNSt3__16vectorI8typeEnumNS_9allocatorIS1_EEE22__construct_one_at_endB8ue170006IJRKS1_EEEvDpOT_, symObjAddr: 0x7820, symBinAddr: 0x100008B50, symSize: 0x90 }
  - { offsetInCU: 0x20CF3, offset: 0x20CF3, size: 0x8, addend: 0x0, symName: __ZNSt3__16vectorI8typeEnumNS_9allocatorIS1_EEE21__push_back_slow_pathIRKS1_EEvOT_, symObjAddr: 0x78B0, symBinAddr: 0x100008BE0, symSize: 0xD0 }
  - { offsetInCU: 0x20D51, offset: 0x20D51, size: 0x8, addend: 0x0, symName: __ZNSt3__117__compressed_pairIP8typeEnumNS_9allocatorIS1_EEE5firstB8ue170006Ev, symObjAddr: 0x7980, symBinAddr: 0x100008CB0, symSize: 0x20 }
  - { offsetInCU: 0x20D77, offset: 0x20D77, size: 0x8, addend: 0x0, symName: __ZNSt3__122__compressed_pair_elemIP8typeEnumLi0ELb0EE5__getB8ue170006Ev, symObjAddr: 0x79A0, symBinAddr: 0x100008CD0, symSize: 0x10 }
  - { offsetInCU: 0x20DB6, offset: 0x20DB6, size: 0x8, addend: 0x0, symName: __ZNSt3__16vectorI8typeEnumNS_9allocatorIS1_EEE21_ConstructTransactionC1B8ue170006ERS4_m, symObjAddr: 0x79B0, symBinAddr: 0x100008CE0, symSize: 0x30 }
  - { offsetInCU: 0x20DFE, offset: 0x20DFE, size: 0x8, addend: 0x0, symName: __ZNSt3__116allocator_traitsINS_9allocatorI8typeEnumEEE9constructB8ue170006IS2_JRKS2_EvEEvRS3_PT_DpOT0_, symObjAddr: 0x79E0, symBinAddr: 0x100008D10, symSize: 0x30 }
  - { offsetInCU: 0x20E55, offset: 0x20E55, size: 0x8, addend: 0x0, symName: __ZNSt3__16vectorI8typeEnumNS_9allocatorIS1_EEE7__allocB8ue170006Ev, symObjAddr: 0x7A10, symBinAddr: 0x100008D40, symSize: 0x20 }
  - { offsetInCU: 0x20E7B, offset: 0x20E7B, size: 0x8, addend: 0x0, symName: __ZNSt3__16vectorI8typeEnumNS_9allocatorIS1_EEE21_ConstructTransactionD1B8ue170006Ev, symObjAddr: 0x7A40, symBinAddr: 0x100008D70, symSize: 0x20 }
  - { offsetInCU: 0x20EA5, offset: 0x20EA5, size: 0x8, addend: 0x0, symName: __ZNSt3__16vectorI8typeEnumNS_9allocatorIS1_EEE21_ConstructTransactionC2B8ue170006ERS4_m, symObjAddr: 0x7A60, symBinAddr: 0x100008D90, symSize: 0x40 }
  - { offsetInCU: 0x20EED, offset: 0x20EED, size: 0x8, addend: 0x0, symName: __ZNSt3__19allocatorI8typeEnumE9constructB8ue170006IS1_JRKS1_EEEvPT_DpOT0_, symObjAddr: 0x7AA0, symBinAddr: 0x100008DD0, symSize: 0x20 }
  - { offsetInCU: 0x20F43, offset: 0x20F43, size: 0x8, addend: 0x0, symName: __ZNSt3__117__compressed_pairIP8typeEnumNS_9allocatorIS1_EEE6secondB8ue170006Ev, symObjAddr: 0x7AC0, symBinAddr: 0x100008DF0, symSize: 0x20 }
  - { offsetInCU: 0x20F69, offset: 0x20F69, size: 0x8, addend: 0x0, symName: __ZNSt3__122__compressed_pair_elemINS_9allocatorI8typeEnumEELi1ELb1EE5__getB8ue170006Ev, symObjAddr: 0x7AE0, symBinAddr: 0x100008E10, symSize: 0x10 }
  - { offsetInCU: 0x20F8F, offset: 0x20F8F, size: 0x8, addend: 0x0, symName: __ZNSt3__16vectorI8typeEnumNS_9allocatorIS1_EEE21_ConstructTransactionD2B8ue170006Ev, symObjAddr: 0x7AF0, symBinAddr: 0x100008E20, symSize: 0x20 }
  - { offsetInCU: 0x20FB9, offset: 0x20FB9, size: 0x8, addend: 0x0, symName: __ZNKSt3__16vectorI8typeEnumNS_9allocatorIS1_EEE11__recommendB8ue170006Em, symObjAddr: 0x7B10, symBinAddr: 0x100008E40, symSize: 0xA0 }
  - { offsetInCU: 0x2100E, offset: 0x2100E, size: 0x8, addend: 0x0, symName: __ZNSt3__114__split_bufferI8typeEnumRNS_9allocatorIS1_EEEC1EmmS4_, symObjAddr: 0x7BB0, symBinAddr: 0x100008EE0, symSize: 0x40 }
  - { offsetInCU: 0x21064, offset: 0x21064, size: 0x8, addend: 0x0, symName: __ZNSt3__114__split_bufferI8typeEnumRNS_9allocatorIS1_EEED1Ev, symObjAddr: 0x7D10, symBinAddr: 0x100009040, symSize: 0x20 }
  - { offsetInCU: 0x21090, offset: 0x21090, size: 0x8, addend: 0x0, symName: __ZNKSt3__16vectorI8typeEnumNS_9allocatorIS1_EEE8max_sizeEv, symObjAddr: 0x7D30, symBinAddr: 0x100009060, symSize: 0x60 }
  - { offsetInCU: 0x210B8, offset: 0x210B8, size: 0x8, addend: 0x0, symName: __ZNKSt3__16vectorI8typeEnumNS_9allocatorIS1_EEE20__throw_length_errorB8ue170006Ev, symObjAddr: 0x7D90, symBinAddr: 0x1000090C0, symSize: 0x20 }
  - { offsetInCU: 0x210DE, offset: 0x210DE, size: 0x8, addend: 0x0, symName: __ZNKSt3__16vectorI8typeEnumNS_9allocatorIS1_EEE8capacityB8ue170006Ev, symObjAddr: 0x7DB0, symBinAddr: 0x1000090E0, symSize: 0x30 }
  - { offsetInCU: 0x2110E, offset: 0x2110E, size: 0x8, addend: 0x0, symName: __ZNSt3__116allocator_traitsINS_9allocatorI8typeEnumEEE8max_sizeB8ue170006IS3_vEEmRKS3_, symObjAddr: 0x7E40, symBinAddr: 0x100009170, symSize: 0x20 }
  - { offsetInCU: 0x2113C, offset: 0x2113C, size: 0x8, addend: 0x0, symName: __ZNKSt3__16vectorI8typeEnumNS_9allocatorIS1_EEE7__allocB8ue170006Ev, symObjAddr: 0x7E60, symBinAddr: 0x100009190, symSize: 0x20 }
  - { offsetInCU: 0x21162, offset: 0x21162, size: 0x8, addend: 0x0, symName: __ZNSt3__114numeric_limitsIlE3maxB8ue170006Ev, symObjAddr: 0x7E80, symBinAddr: 0x1000091B0, symSize: 0x10 }
  - { offsetInCU: 0x21180, offset: 0x21180, size: 0x8, addend: 0x0, symName: __ZNKSt3__16__lessIvvEclB8ue170006ImmEEbRKT_RKT0_, symObjAddr: 0x7EE0, symBinAddr: 0x100009210, symSize: 0x30 }
  - { offsetInCU: 0x211D4, offset: 0x211D4, size: 0x8, addend: 0x0, symName: __ZNKSt3__19allocatorI8typeEnumE8max_sizeB8ue170006Ev, symObjAddr: 0x7F10, symBinAddr: 0x100009240, symSize: 0x20 }
  - { offsetInCU: 0x211FA, offset: 0x211FA, size: 0x8, addend: 0x0, symName: __ZNKSt3__117__compressed_pairIP8typeEnumNS_9allocatorIS1_EEE6secondB8ue170006Ev, symObjAddr: 0x7F30, symBinAddr: 0x100009260, symSize: 0x20 }
  - { offsetInCU: 0x21220, offset: 0x21220, size: 0x8, addend: 0x0, symName: __ZNKSt3__122__compressed_pair_elemINS_9allocatorI8typeEnumEELi1ELb1EE5__getB8ue170006Ev, symObjAddr: 0x7F50, symBinAddr: 0x100009280, symSize: 0x10 }
  - { offsetInCU: 0x21246, offset: 0x21246, size: 0x8, addend: 0x0, symName: __ZNSt3__123__libcpp_numeric_limitsIlLb1EE3maxB8ue170006Ev, symObjAddr: 0x7F60, symBinAddr: 0x100009290, symSize: 0x10 }
  - { offsetInCU: 0x2125A, offset: 0x2125A, size: 0x8, addend: 0x0, symName: __ZNSt12length_errorC1B8ue170006EPKc, symObjAddr: 0x7FE0, symBinAddr: 0x100009310, symSize: 0x30 }
  - { offsetInCU: 0x21292, offset: 0x21292, size: 0x8, addend: 0x0, symName: __ZNSt12length_errorC2B8ue170006EPKc, symObjAddr: 0x8010, symBinAddr: 0x100009340, symSize: 0x40 }
  - { offsetInCU: 0x212CA, offset: 0x212CA, size: 0x8, addend: 0x0, symName: __ZNKSt3__16vectorI8typeEnumNS_9allocatorIS1_EEE9__end_capB8ue170006Ev, symObjAddr: 0x8050, symBinAddr: 0x100009380, symSize: 0x20 }
  - { offsetInCU: 0x212F0, offset: 0x212F0, size: 0x8, addend: 0x0, symName: __ZNKSt3__117__compressed_pairIP8typeEnumNS_9allocatorIS1_EEE5firstB8ue170006Ev, symObjAddr: 0x8070, symBinAddr: 0x1000093A0, symSize: 0x20 }
  - { offsetInCU: 0x21316, offset: 0x21316, size: 0x8, addend: 0x0, symName: __ZNKSt3__122__compressed_pair_elemIP8typeEnumLi0ELb0EE5__getB8ue170006Ev, symObjAddr: 0x8090, symBinAddr: 0x1000093C0, symSize: 0x10 }
  - { offsetInCU: 0x2133C, offset: 0x2133C, size: 0x8, addend: 0x0, symName: __ZNSt3__114__split_bufferI8typeEnumRNS_9allocatorIS1_EEEC2EmmS4_, symObjAddr: 0x80F0, symBinAddr: 0x100009420, symSize: 0xD0 }
  - { offsetInCU: 0x213B0, offset: 0x213B0, size: 0x8, addend: 0x0, symName: __ZNSt3__117__compressed_pairIP8typeEnumRNS_9allocatorIS1_EEEC1B8ue170006IDnS5_EEOT_OT0_, symObjAddr: 0x81C0, symBinAddr: 0x1000094F0, symSize: 0x30 }
  - { offsetInCU: 0x21408, offset: 0x21408, size: 0x8, addend: 0x0, symName: __ZNSt3__114__split_bufferI8typeEnumRNS_9allocatorIS1_EEE7__allocB8ue170006Ev, symObjAddr: 0x8230, symBinAddr: 0x100009560, symSize: 0x20 }
  - { offsetInCU: 0x2142E, offset: 0x2142E, size: 0x8, addend: 0x0, symName: __ZNSt3__114__split_bufferI8typeEnumRNS_9allocatorIS1_EEE9__end_capB8ue170006Ev, symObjAddr: 0x8250, symBinAddr: 0x100009580, symSize: 0x20 }
  - { offsetInCU: 0x21454, offset: 0x21454, size: 0x8, addend: 0x0, symName: __ZNSt3__117__compressed_pairIP8typeEnumRNS_9allocatorIS1_EEEC2B8ue170006IDnS5_EEOT_OT0_, symObjAddr: 0x8270, symBinAddr: 0x1000095A0, symSize: 0x40 }
  - { offsetInCU: 0x214AC, offset: 0x214AC, size: 0x8, addend: 0x0, symName: __ZNSt3__122__compressed_pair_elemIP8typeEnumLi0ELb0EEC2B8ue170006IDnvEEOT_, symObjAddr: 0x82B0, symBinAddr: 0x1000095E0, symSize: 0x20 }
  - { offsetInCU: 0x214EE, offset: 0x214EE, size: 0x8, addend: 0x0, symName: __ZNSt3__122__compressed_pair_elemIRNS_9allocatorI8typeEnumEELi1ELb0EEC2B8ue170006IS4_vEEOT_, symObjAddr: 0x82D0, symBinAddr: 0x100009600, symSize: 0x20 }
  - { offsetInCU: 0x21530, offset: 0x21530, size: 0x8, addend: 0x0, symName: __ZNSt3__19allocatorI8typeEnumE8allocateB8ue170006Em, symObjAddr: 0x82F0, symBinAddr: 0x100009620, symSize: 0x50 }
  - { offsetInCU: 0x21564, offset: 0x21564, size: 0x8, addend: 0x0, symName: __ZNSt3__117__compressed_pairIP8typeEnumRNS_9allocatorIS1_EEE6secondB8ue170006Ev, symObjAddr: 0x83C0, symBinAddr: 0x1000096F0, symSize: 0x20 }
  - { offsetInCU: 0x2158A, offset: 0x2158A, size: 0x8, addend: 0x0, symName: __ZNSt3__122__compressed_pair_elemIRNS_9allocatorI8typeEnumEELi1ELb0EE5__getB8ue170006Ev, symObjAddr: 0x83E0, symBinAddr: 0x100009710, symSize: 0x20 }
  - { offsetInCU: 0x215B0, offset: 0x215B0, size: 0x8, addend: 0x0, symName: __ZNSt3__117__compressed_pairIP8typeEnumRNS_9allocatorIS1_EEE5firstB8ue170006Ev, symObjAddr: 0x8400, symBinAddr: 0x100009730, symSize: 0x20 }
  - { offsetInCU: 0x215D6, offset: 0x215D6, size: 0x8, addend: 0x0, symName: __ZNKSt3__16vectorI8typeEnumNS_9allocatorIS1_EEE17__annotate_deleteB8ue170006Ev, symObjAddr: 0x8420, symBinAddr: 0x100009750, symSize: 0xB0 }
  - { offsetInCU: 0x215FC, offset: 0x215FC, size: 0x8, addend: 0x0, symName: __ZNSt3__116reverse_iteratorIP8typeEnumEC1B8ue170006ES2_, symObjAddr: 0x8540, symBinAddr: 0x100009870, symSize: 0x30 }
  - { offsetInCU: 0x21634, offset: 0x21634, size: 0x8, addend: 0x0, symName: __ZNKSt3__116reverse_iteratorIP8typeEnumE4baseB8ue170006Ev, symObjAddr: 0x8570, symBinAddr: 0x1000098A0, symSize: 0x20 }
  - { offsetInCU: 0x2165A, offset: 0x2165A, size: 0x8, addend: 0x0, symName: __ZNKSt3__16vectorI8typeEnumNS_9allocatorIS1_EEE14__annotate_newB8ue170006Em, symObjAddr: 0x85D0, symBinAddr: 0x100009900, symSize: 0xB0 }
  - { offsetInCU: 0x2168F, offset: 0x2168F, size: 0x8, addend: 0x0, symName: __ZNKSt3__16vectorI8typeEnumNS_9allocatorIS1_EEE31__annotate_contiguous_containerB8ue170006EPKvS6_S6_S6_, symObjAddr: 0x8680, symBinAddr: 0x1000099B0, symSize: 0x20 }
  - { offsetInCU: 0x216E1, offset: 0x216E1, size: 0x8, addend: 0x0, symName: __ZNKSt3__16vectorI8typeEnumNS_9allocatorIS1_EEE4dataB8ue170006Ev, symObjAddr: 0x86A0, symBinAddr: 0x1000099D0, symSize: 0x20 }
  - { offsetInCU: 0x2172A, offset: 0x2172A, size: 0x8, addend: 0x0, symName: __ZNKSt3__111__move_loopINS_17_ClassicAlgPolicyEEclB8ue170006INS_16reverse_iteratorIP8typeEnumEES7_S7_EENS_4pairIT_T1_EES9_T0_SA_, symObjAddr: 0x8B00, symBinAddr: 0x100009E30, symSize: 0xA0 }
  - { offsetInCU: 0x2179A, offset: 0x2179A, size: 0x8, addend: 0x0, symName: __ZNSt3__18_IterOpsINS_17_ClassicAlgPolicyEE11__iter_moveB8ue170006IRNS_16reverse_iteratorIP8typeEnumEEEENS_9enable_ifIXsr12is_referenceIDTdeclsr3stdE7declvalIRT_EEEEE5valueEDTclsr3stdE4movedeclsr3stdE7declvalISB_EEEEE4typeEOSA_, symObjAddr: 0x8D20, symBinAddr: 0x10000A050, symSize: 0x20 }
  - { offsetInCU: 0x217C6, offset: 0x217C6, size: 0x8, addend: 0x0, symName: __ZNKSt3__116reverse_iteratorIP8typeEnumEdeB8ue170006Ev, symObjAddr: 0x8D40, symBinAddr: 0x10000A070, symSize: 0x30 }
  - { offsetInCU: 0x217FA, offset: 0x217FA, size: 0x8, addend: 0x0, symName: __ZNSt3__116reverse_iteratorIP8typeEnumEppB8ue170006Ev, symObjAddr: 0x8D70, symBinAddr: 0x10000A0A0, symSize: 0x20 }
  - { offsetInCU: 0x21820, offset: 0x21820, size: 0x8, addend: 0x0, symName: __ZNSt3__18_IterOpsINS_17_ClassicAlgPolicyEE25__validate_iter_referenceB8ue170006IRNS_16reverse_iteratorIP8typeEnumEEEEvv, symObjAddr: 0x8D90, symBinAddr: 0x10000A0C0, symSize: 0x10 }
  - { offsetInCU: 0x2183E, offset: 0x2183E, size: 0x8, addend: 0x0, symName: __ZNSt3__118__unwrap_iter_implINS_16reverse_iteratorIP8typeEnumEELb0EE8__unwrapB8ue170006ES4_, symObjAddr: 0x8DA0, symBinAddr: 0x10000A0D0, symSize: 0x20 }
  - { offsetInCU: 0x21866, offset: 0x21866, size: 0x8, addend: 0x0, symName: __ZNSt3__14pairINS_16reverse_iteratorIP8typeEnumEES4_EC1B8ue170006IS4_S4_LPv0EEEOT_OT0_, symObjAddr: 0x8DC0, symBinAddr: 0x10000A0F0, symSize: 0x30 }
  - { offsetInCU: 0x218C4, offset: 0x218C4, size: 0x8, addend: 0x0, symName: __ZNSt3__14pairINS_16reverse_iteratorIP8typeEnumEES4_EC2B8ue170006IS4_S4_LPv0EEEOT_OT0_, symObjAddr: 0x8DF0, symBinAddr: 0x10000A120, symSize: 0x40 }
  - { offsetInCU: 0x21922, offset: 0x21922, size: 0x8, addend: 0x0, symName: __ZNSt3__118__unwrap_iter_implINS_16reverse_iteratorIP8typeEnumEELb0EE8__rewrapB8ue170006ES4_S4_, symObjAddr: 0x8E30, symBinAddr: 0x10000A160, symSize: 0x30 }
  - { offsetInCU: 0x21950, offset: 0x21950, size: 0x8, addend: 0x0, symName: __ZNSt3__116reverse_iteratorIP8typeEnumEC2B8ue170006ES2_, symObjAddr: 0x8E60, symBinAddr: 0x10000A190, symSize: 0x30 }
  - { offsetInCU: 0x21988, offset: 0x21988, size: 0x8, addend: 0x0, symName: __ZNSt3__114__split_bufferI8typeEnumRNS_9allocatorIS1_EEED2Ev, symObjAddr: 0x8E90, symBinAddr: 0x10000A1C0, symSize: 0x70 }
  - { offsetInCU: 0x219B4, offset: 0x219B4, size: 0x8, addend: 0x0, symName: __ZNSt3__114__split_bufferI8typeEnumRNS_9allocatorIS1_EEE5clearB8ue170006Ev, symObjAddr: 0x8F00, symBinAddr: 0x10000A230, symSize: 0x20 }
  - { offsetInCU: 0x219DA, offset: 0x219DA, size: 0x8, addend: 0x0, symName: __ZNSt3__116allocator_traitsINS_9allocatorI8typeEnumEEE10deallocateB8ue170006ERS3_PS2_m, symObjAddr: 0x8F20, symBinAddr: 0x10000A250, symSize: 0x30 }
  - { offsetInCU: 0x21A1C, offset: 0x21A1C, size: 0x8, addend: 0x0, symName: __ZNKSt3__114__split_bufferI8typeEnumRNS_9allocatorIS1_EEE8capacityB8ue170006Ev, symObjAddr: 0x8F50, symBinAddr: 0x10000A280, symSize: 0x30 }
  - { offsetInCU: 0x21A42, offset: 0x21A42, size: 0x8, addend: 0x0, symName: __ZNSt3__114__split_bufferI8typeEnumRNS_9allocatorIS1_EEE17__destruct_at_endB8ue170006EPS1_, symObjAddr: 0x8F80, symBinAddr: 0x10000A2B0, symSize: 0x30 }
  - { offsetInCU: 0x21A76, offset: 0x21A76, size: 0x8, addend: 0x0, symName: __ZNSt3__114__split_bufferI8typeEnumRNS_9allocatorIS1_EEE17__destruct_at_endB8ue170006EPS1_NS_17integral_constantIbLb0EEE, symObjAddr: 0x8FB0, symBinAddr: 0x10000A2E0, symSize: 0x80 }
  - { offsetInCU: 0x21AB7, offset: 0x21AB7, size: 0x8, addend: 0x0, symName: __ZNSt3__116allocator_traitsINS_9allocatorI8typeEnumEEE7destroyB8ue170006IS2_vEEvRS3_PT_, symObjAddr: 0x9030, symBinAddr: 0x10000A360, symSize: 0x30 }
  - { offsetInCU: 0x21AF4, offset: 0x21AF4, size: 0x8, addend: 0x0, symName: __ZNSt3__19allocatorI8typeEnumE7destroyB8ue170006EPS1_, symObjAddr: 0x9060, symBinAddr: 0x10000A390, symSize: 0x10 }
  - { offsetInCU: 0x21B28, offset: 0x21B28, size: 0x8, addend: 0x0, symName: __ZNSt3__19allocatorI8typeEnumE10deallocateB8ue170006EPS1_m, symObjAddr: 0x9070, symBinAddr: 0x10000A3A0, symSize: 0x40 }
  - { offsetInCU: 0x21B6A, offset: 0x21B6A, size: 0x8, addend: 0x0, symName: __ZNKSt3__114__split_bufferI8typeEnumRNS_9allocatorIS1_EEE9__end_capB8ue170006Ev, symObjAddr: 0x9120, symBinAddr: 0x10000A450, symSize: 0x20 }
  - { offsetInCU: 0x21B90, offset: 0x21B90, size: 0x8, addend: 0x0, symName: __ZNKSt3__117__compressed_pairIP8typeEnumRNS_9allocatorIS1_EEE5firstB8ue170006Ev, symObjAddr: 0x9140, symBinAddr: 0x10000A470, symSize: 0x20 }
  - { offsetInCU: 0x21BB6, offset: 0x21BB6, size: 0x8, addend: 0x0, symName: __ZNSt3__16vectorIPcNS_9allocatorIS1_EEE9__end_capB8ue170006Ev, symObjAddr: 0x9160, symBinAddr: 0x10000A490, symSize: 0x20 }
  - { offsetInCU: 0x21BDC, offset: 0x21BDC, size: 0x8, addend: 0x0, symName: __ZNSt3__16vectorIPcNS_9allocatorIS1_EEE22__construct_one_at_endB8ue170006IJRKS1_EEEvDpOT_, symObjAddr: 0x9180, symBinAddr: 0x10000A4B0, symSize: 0x90 }
  - { offsetInCU: 0x21C2B, offset: 0x21C2B, size: 0x8, addend: 0x0, symName: __ZNSt3__16vectorIPcNS_9allocatorIS1_EEE21__push_back_slow_pathIRKS1_EEvOT_, symObjAddr: 0x9210, symBinAddr: 0x10000A540, symSize: 0xD0 }
  - { offsetInCU: 0x21C89, offset: 0x21C89, size: 0x8, addend: 0x0, symName: __ZNSt3__117__compressed_pairIPPcNS_9allocatorIS1_EEE5firstB8ue170006Ev, symObjAddr: 0x92E0, symBinAddr: 0x10000A610, symSize: 0x20 }
  - { offsetInCU: 0x21CAF, offset: 0x21CAF, size: 0x8, addend: 0x0, symName: __ZNSt3__122__compressed_pair_elemIPPcLi0ELb0EE5__getB8ue170006Ev, symObjAddr: 0x9300, symBinAddr: 0x10000A630, symSize: 0x10 }
  - { offsetInCU: 0x21CEE, offset: 0x21CEE, size: 0x8, addend: 0x0, symName: __ZNSt3__16vectorIPcNS_9allocatorIS1_EEE21_ConstructTransactionC1B8ue170006ERS4_m, symObjAddr: 0x9310, symBinAddr: 0x10000A640, symSize: 0x30 }
  - { offsetInCU: 0x21D36, offset: 0x21D36, size: 0x8, addend: 0x0, symName: __ZNSt3__116allocator_traitsINS_9allocatorIPcEEE9constructB8ue170006IS2_JRKS2_EvEEvRS3_PT_DpOT0_, symObjAddr: 0x9340, symBinAddr: 0x10000A670, symSize: 0x30 }
  - { offsetInCU: 0x21D8D, offset: 0x21D8D, size: 0x8, addend: 0x0, symName: __ZNSt3__16vectorIPcNS_9allocatorIS1_EEE7__allocB8ue170006Ev, symObjAddr: 0x9370, symBinAddr: 0x10000A6A0, symSize: 0x20 }
  - { offsetInCU: 0x21DB3, offset: 0x21DB3, size: 0x8, addend: 0x0, symName: __ZNSt3__16vectorIPcNS_9allocatorIS1_EEE21_ConstructTransactionD1B8ue170006Ev, symObjAddr: 0x93A0, symBinAddr: 0x10000A6D0, symSize: 0x20 }
  - { offsetInCU: 0x21DDD, offset: 0x21DDD, size: 0x8, addend: 0x0, symName: __ZNSt3__16vectorIPcNS_9allocatorIS1_EEE21_ConstructTransactionC2B8ue170006ERS4_m, symObjAddr: 0x93C0, symBinAddr: 0x10000A6F0, symSize: 0x40 }
  - { offsetInCU: 0x21E25, offset: 0x21E25, size: 0x8, addend: 0x0, symName: __ZNSt3__19allocatorIPcE9constructB8ue170006IS1_JRKS1_EEEvPT_DpOT0_, symObjAddr: 0x9400, symBinAddr: 0x10000A730, symSize: 0x20 }
  - { offsetInCU: 0x21E7B, offset: 0x21E7B, size: 0x8, addend: 0x0, symName: __ZNSt3__117__compressed_pairIPPcNS_9allocatorIS1_EEE6secondB8ue170006Ev, symObjAddr: 0x9420, symBinAddr: 0x10000A750, symSize: 0x20 }
  - { offsetInCU: 0x21EA1, offset: 0x21EA1, size: 0x8, addend: 0x0, symName: __ZNSt3__122__compressed_pair_elemINS_9allocatorIPcEELi1ELb1EE5__getB8ue170006Ev, symObjAddr: 0x9440, symBinAddr: 0x10000A770, symSize: 0x10 }
  - { offsetInCU: 0x21EC7, offset: 0x21EC7, size: 0x8, addend: 0x0, symName: __ZNSt3__16vectorIPcNS_9allocatorIS1_EEE21_ConstructTransactionD2B8ue170006Ev, symObjAddr: 0x9450, symBinAddr: 0x10000A780, symSize: 0x20 }
  - { offsetInCU: 0x21EF1, offset: 0x21EF1, size: 0x8, addend: 0x0, symName: __ZNKSt3__16vectorIPcNS_9allocatorIS1_EEE11__recommendB8ue170006Em, symObjAddr: 0x9470, symBinAddr: 0x10000A7A0, symSize: 0xA0 }
  - { offsetInCU: 0x21F46, offset: 0x21F46, size: 0x8, addend: 0x0, symName: __ZNKSt3__16vectorIPcNS_9allocatorIS1_EEE4sizeB8ue170006Ev, symObjAddr: 0x9510, symBinAddr: 0x10000A840, symSize: 0x20 }
  - { offsetInCU: 0x21F6C, offset: 0x21F6C, size: 0x8, addend: 0x0, symName: __ZNSt3__114__split_bufferIPcRNS_9allocatorIS1_EEEC1EmmS4_, symObjAddr: 0x9530, symBinAddr: 0x10000A860, symSize: 0x40 }
  - { offsetInCU: 0x21FC2, offset: 0x21FC2, size: 0x8, addend: 0x0, symName: __ZNSt3__114__split_bufferIPcRNS_9allocatorIS1_EEED1Ev, symObjAddr: 0x9690, symBinAddr: 0x10000A9C0, symSize: 0x20 }
  - { offsetInCU: 0x21FEE, offset: 0x21FEE, size: 0x8, addend: 0x0, symName: __ZNKSt3__16vectorIPcNS_9allocatorIS1_EEE8max_sizeEv, symObjAddr: 0x96B0, symBinAddr: 0x10000A9E0, symSize: 0x60 }
  - { offsetInCU: 0x22016, offset: 0x22016, size: 0x8, addend: 0x0, symName: __ZNKSt3__16vectorIPcNS_9allocatorIS1_EEE20__throw_length_errorB8ue170006Ev, symObjAddr: 0x9710, symBinAddr: 0x10000AA40, symSize: 0x20 }
  - { offsetInCU: 0x2203C, offset: 0x2203C, size: 0x8, addend: 0x0, symName: __ZNKSt3__16vectorIPcNS_9allocatorIS1_EEE8capacityB8ue170006Ev, symObjAddr: 0x9730, symBinAddr: 0x10000AA60, symSize: 0x30 }
  - { offsetInCU: 0x2206C, offset: 0x2206C, size: 0x8, addend: 0x0, symName: __ZNSt3__116allocator_traitsINS_9allocatorIPcEEE8max_sizeB8ue170006IS3_vEEmRKS3_, symObjAddr: 0x9760, symBinAddr: 0x10000AA90, symSize: 0x20 }
  - { offsetInCU: 0x2209A, offset: 0x2209A, size: 0x8, addend: 0x0, symName: __ZNKSt3__16vectorIPcNS_9allocatorIS1_EEE7__allocB8ue170006Ev, symObjAddr: 0x9780, symBinAddr: 0x10000AAB0, symSize: 0x20 }
  - { offsetInCU: 0x220C0, offset: 0x220C0, size: 0x8, addend: 0x0, symName: __ZNKSt3__19allocatorIPcE8max_sizeB8ue170006Ev, symObjAddr: 0x97A0, symBinAddr: 0x10000AAD0, symSize: 0x20 }
  - { offsetInCU: 0x220E6, offset: 0x220E6, size: 0x8, addend: 0x0, symName: __ZNKSt3__117__compressed_pairIPPcNS_9allocatorIS1_EEE6secondB8ue170006Ev, symObjAddr: 0x97C0, symBinAddr: 0x10000AAF0, symSize: 0x20 }
  - { offsetInCU: 0x2210C, offset: 0x2210C, size: 0x8, addend: 0x0, symName: __ZNKSt3__122__compressed_pair_elemINS_9allocatorIPcEELi1ELb1EE5__getB8ue170006Ev, symObjAddr: 0x97E0, symBinAddr: 0x10000AB10, symSize: 0x10 }
  - { offsetInCU: 0x22132, offset: 0x22132, size: 0x8, addend: 0x0, symName: __ZNKSt3__16vectorIPcNS_9allocatorIS1_EEE9__end_capB8ue170006Ev, symObjAddr: 0x97F0, symBinAddr: 0x10000AB20, symSize: 0x20 }
  - { offsetInCU: 0x22158, offset: 0x22158, size: 0x8, addend: 0x0, symName: __ZNKSt3__117__compressed_pairIPPcNS_9allocatorIS1_EEE5firstB8ue170006Ev, symObjAddr: 0x9810, symBinAddr: 0x10000AB40, symSize: 0x20 }
  - { offsetInCU: 0x2217E, offset: 0x2217E, size: 0x8, addend: 0x0, symName: __ZNKSt3__122__compressed_pair_elemIPPcLi0ELb0EE5__getB8ue170006Ev, symObjAddr: 0x9830, symBinAddr: 0x10000AB60, symSize: 0x10 }
  - { offsetInCU: 0x221A4, offset: 0x221A4, size: 0x8, addend: 0x0, symName: __ZNSt3__114__split_bufferIPcRNS_9allocatorIS1_EEEC2EmmS4_, symObjAddr: 0x9840, symBinAddr: 0x10000AB70, symSize: 0xD0 }
  - { offsetInCU: 0x22218, offset: 0x22218, size: 0x8, addend: 0x0, symName: __ZNSt3__117__compressed_pairIPPcRNS_9allocatorIS1_EEEC1B8ue170006IDnS5_EEOT_OT0_, symObjAddr: 0x9910, symBinAddr: 0x10000AC40, symSize: 0x30 }
  - { offsetInCU: 0x22270, offset: 0x22270, size: 0x8, addend: 0x0, symName: __ZNSt3__114__split_bufferIPcRNS_9allocatorIS1_EEE7__allocB8ue170006Ev, symObjAddr: 0x9980, symBinAddr: 0x10000ACB0, symSize: 0x20 }
  - { offsetInCU: 0x22296, offset: 0x22296, size: 0x8, addend: 0x0, symName: __ZNSt3__114__split_bufferIPcRNS_9allocatorIS1_EEE9__end_capB8ue170006Ev, symObjAddr: 0x99A0, symBinAddr: 0x10000ACD0, symSize: 0x20 }
  - { offsetInCU: 0x222BC, offset: 0x222BC, size: 0x8, addend: 0x0, symName: __ZNSt3__117__compressed_pairIPPcRNS_9allocatorIS1_EEEC2B8ue170006IDnS5_EEOT_OT0_, symObjAddr: 0x99C0, symBinAddr: 0x10000ACF0, symSize: 0x40 }
  - { offsetInCU: 0x22314, offset: 0x22314, size: 0x8, addend: 0x0, symName: __ZNSt3__122__compressed_pair_elemIPPcLi0ELb0EEC2B8ue170006IDnvEEOT_, symObjAddr: 0x9A00, symBinAddr: 0x10000AD30, symSize: 0x20 }
  - { offsetInCU: 0x22356, offset: 0x22356, size: 0x8, addend: 0x0, symName: __ZNSt3__122__compressed_pair_elemIRNS_9allocatorIPcEELi1ELb0EEC2B8ue170006IS4_vEEOT_, symObjAddr: 0x9A20, symBinAddr: 0x10000AD50, symSize: 0x20 }
  - { offsetInCU: 0x22398, offset: 0x22398, size: 0x8, addend: 0x0, symName: __ZNSt3__19allocatorIPcE8allocateB8ue170006Em, symObjAddr: 0x9A40, symBinAddr: 0x10000AD70, symSize: 0x50 }
  - { offsetInCU: 0x223CC, offset: 0x223CC, size: 0x8, addend: 0x0, symName: __ZNSt3__117__compressed_pairIPPcRNS_9allocatorIS1_EEE6secondB8ue170006Ev, symObjAddr: 0x9A90, symBinAddr: 0x10000ADC0, symSize: 0x20 }
  - { offsetInCU: 0x223F2, offset: 0x223F2, size: 0x8, addend: 0x0, symName: __ZNSt3__122__compressed_pair_elemIRNS_9allocatorIPcEELi1ELb0EE5__getB8ue170006Ev, symObjAddr: 0x9AB0, symBinAddr: 0x10000ADE0, symSize: 0x20 }
  - { offsetInCU: 0x22418, offset: 0x22418, size: 0x8, addend: 0x0, symName: __ZNSt3__117__compressed_pairIPPcRNS_9allocatorIS1_EEE5firstB8ue170006Ev, symObjAddr: 0x9AD0, symBinAddr: 0x10000AE00, symSize: 0x20 }
  - { offsetInCU: 0x2243E, offset: 0x2243E, size: 0x8, addend: 0x0, symName: __ZNKSt3__16vectorIPcNS_9allocatorIS1_EEE17__annotate_deleteB8ue170006Ev, symObjAddr: 0x9AF0, symBinAddr: 0x10000AE20, symSize: 0xB0 }
  - { offsetInCU: 0x22464, offset: 0x22464, size: 0x8, addend: 0x0, symName: __ZNSt3__116reverse_iteratorIPPcEC1B8ue170006ES2_, symObjAddr: 0x9C10, symBinAddr: 0x10000AF40, symSize: 0x30 }
  - { offsetInCU: 0x2249C, offset: 0x2249C, size: 0x8, addend: 0x0, symName: __ZNKSt3__116reverse_iteratorIPPcE4baseB8ue170006Ev, symObjAddr: 0x9C40, symBinAddr: 0x10000AF70, symSize: 0x20 }
  - { offsetInCU: 0x224C2, offset: 0x224C2, size: 0x8, addend: 0x0, symName: __ZNKSt3__16vectorIPcNS_9allocatorIS1_EEE14__annotate_newB8ue170006Em, symObjAddr: 0x9CA0, symBinAddr: 0x10000AFD0, symSize: 0xB0 }
  - { offsetInCU: 0x224F7, offset: 0x224F7, size: 0x8, addend: 0x0, symName: __ZNKSt3__16vectorIPcNS_9allocatorIS1_EEE31__annotate_contiguous_containerB8ue170006EPKvS6_S6_S6_, symObjAddr: 0x9D50, symBinAddr: 0x10000B080, symSize: 0x20 }
  - { offsetInCU: 0x22549, offset: 0x22549, size: 0x8, addend: 0x0, symName: __ZNKSt3__16vectorIPcNS_9allocatorIS1_EEE4dataB8ue170006Ev, symObjAddr: 0x9D70, symBinAddr: 0x10000B0A0, symSize: 0x20 }
  - { offsetInCU: 0x22588, offset: 0x22588, size: 0x8, addend: 0x0, symName: __ZNKSt3__111__move_loopINS_17_ClassicAlgPolicyEEclB8ue170006INS_16reverse_iteratorIPPcEES7_S7_EENS_4pairIT_T1_EES9_T0_SA_, symObjAddr: 0xA1D0, symBinAddr: 0x10000B500, symSize: 0xA0 }
  - { offsetInCU: 0x225F8, offset: 0x225F8, size: 0x8, addend: 0x0, symName: __ZNSt3__18_IterOpsINS_17_ClassicAlgPolicyEE11__iter_moveB8ue170006IRNS_16reverse_iteratorIPPcEEEENS_9enable_ifIXsr12is_referenceIDTdeclsr3stdE7declvalIRT_EEEEE5valueEDTclsr3stdE4movedeclsr3stdE7declvalISB_EEEEE4typeEOSA_, symObjAddr: 0xA3F0, symBinAddr: 0x10000B720, symSize: 0x20 }
  - { offsetInCU: 0x22624, offset: 0x22624, size: 0x8, addend: 0x0, symName: __ZNKSt3__116reverse_iteratorIPPcEdeB8ue170006Ev, symObjAddr: 0xA410, symBinAddr: 0x10000B740, symSize: 0x30 }
  - { offsetInCU: 0x22658, offset: 0x22658, size: 0x8, addend: 0x0, symName: __ZNSt3__116reverse_iteratorIPPcEppB8ue170006Ev, symObjAddr: 0xA440, symBinAddr: 0x10000B770, symSize: 0x20 }
  - { offsetInCU: 0x2267E, offset: 0x2267E, size: 0x8, addend: 0x0, symName: __ZNSt3__18_IterOpsINS_17_ClassicAlgPolicyEE25__validate_iter_referenceB8ue170006IRNS_16reverse_iteratorIPPcEEEEvv, symObjAddr: 0xA460, symBinAddr: 0x10000B790, symSize: 0x10 }
  - { offsetInCU: 0x2269C, offset: 0x2269C, size: 0x8, addend: 0x0, symName: __ZNSt3__118__unwrap_iter_implINS_16reverse_iteratorIPPcEELb0EE8__unwrapB8ue170006ES4_, symObjAddr: 0xA470, symBinAddr: 0x10000B7A0, symSize: 0x20 }
  - { offsetInCU: 0x226C4, offset: 0x226C4, size: 0x8, addend: 0x0, symName: __ZNSt3__14pairINS_16reverse_iteratorIPPcEES4_EC1B8ue170006IS4_S4_LPv0EEEOT_OT0_, symObjAddr: 0xA490, symBinAddr: 0x10000B7C0, symSize: 0x30 }
  - { offsetInCU: 0x22722, offset: 0x22722, size: 0x8, addend: 0x0, symName: __ZNSt3__14pairINS_16reverse_iteratorIPPcEES4_EC2B8ue170006IS4_S4_LPv0EEEOT_OT0_, symObjAddr: 0xA4C0, symBinAddr: 0x10000B7F0, symSize: 0x40 }
  - { offsetInCU: 0x22780, offset: 0x22780, size: 0x8, addend: 0x0, symName: __ZNSt3__118__unwrap_iter_implINS_16reverse_iteratorIPPcEELb0EE8__rewrapB8ue170006ES4_S4_, symObjAddr: 0xA500, symBinAddr: 0x10000B830, symSize: 0x30 }
  - { offsetInCU: 0x227AE, offset: 0x227AE, size: 0x8, addend: 0x0, symName: __ZNSt3__116reverse_iteratorIPPcEC2B8ue170006ES2_, symObjAddr: 0xA530, symBinAddr: 0x10000B860, symSize: 0x30 }
  - { offsetInCU: 0x227E6, offset: 0x227E6, size: 0x8, addend: 0x0, symName: __ZNSt3__114__split_bufferIPcRNS_9allocatorIS1_EEED2Ev, symObjAddr: 0xA560, symBinAddr: 0x10000B890, symSize: 0x70 }
  - { offsetInCU: 0x22812, offset: 0x22812, size: 0x8, addend: 0x0, symName: __ZNSt3__114__split_bufferIPcRNS_9allocatorIS1_EEE5clearB8ue170006Ev, symObjAddr: 0xA5D0, symBinAddr: 0x10000B900, symSize: 0x20 }
  - { offsetInCU: 0x22838, offset: 0x22838, size: 0x8, addend: 0x0, symName: __ZNSt3__116allocator_traitsINS_9allocatorIPcEEE10deallocateB8ue170006ERS3_PS2_m, symObjAddr: 0xA5F0, symBinAddr: 0x10000B920, symSize: 0x30 }
  - { offsetInCU: 0x2287A, offset: 0x2287A, size: 0x8, addend: 0x0, symName: __ZNKSt3__114__split_bufferIPcRNS_9allocatorIS1_EEE8capacityB8ue170006Ev, symObjAddr: 0xA620, symBinAddr: 0x10000B950, symSize: 0x30 }
  - { offsetInCU: 0x228A0, offset: 0x228A0, size: 0x8, addend: 0x0, symName: __ZNSt3__114__split_bufferIPcRNS_9allocatorIS1_EEE17__destruct_at_endB8ue170006EPS1_, symObjAddr: 0xA650, symBinAddr: 0x10000B980, symSize: 0x30 }
  - { offsetInCU: 0x228D4, offset: 0x228D4, size: 0x8, addend: 0x0, symName: __ZNSt3__114__split_bufferIPcRNS_9allocatorIS1_EEE17__destruct_at_endB8ue170006EPS1_NS_17integral_constantIbLb0EEE, symObjAddr: 0xA680, symBinAddr: 0x10000B9B0, symSize: 0x80 }
  - { offsetInCU: 0x22915, offset: 0x22915, size: 0x8, addend: 0x0, symName: __ZNSt3__116allocator_traitsINS_9allocatorIPcEEE7destroyB8ue170006IS2_vEEvRS3_PT_, symObjAddr: 0xA700, symBinAddr: 0x10000BA30, symSize: 0x30 }
  - { offsetInCU: 0x22952, offset: 0x22952, size: 0x8, addend: 0x0, symName: __ZNSt3__19allocatorIPcE7destroyB8ue170006EPS1_, symObjAddr: 0xA730, symBinAddr: 0x10000BA60, symSize: 0x10 }
  - { offsetInCU: 0x22986, offset: 0x22986, size: 0x8, addend: 0x0, symName: __ZNSt3__19allocatorIPcE10deallocateB8ue170006EPS1_m, symObjAddr: 0xA740, symBinAddr: 0x10000BA70, symSize: 0x40 }
  - { offsetInCU: 0x229C8, offset: 0x229C8, size: 0x8, addend: 0x0, symName: __ZNKSt3__114__split_bufferIPcRNS_9allocatorIS1_EEE9__end_capB8ue170006Ev, symObjAddr: 0xA780, symBinAddr: 0x10000BAB0, symSize: 0x20 }
  - { offsetInCU: 0x229EE, offset: 0x229EE, size: 0x8, addend: 0x0, symName: __ZNKSt3__117__compressed_pairIPPcRNS_9allocatorIS1_EEE5firstB8ue170006Ev, symObjAddr: 0xA7A0, symBinAddr: 0x10000BAD0, symSize: 0x20 }
  - { offsetInCU: 0x22A14, offset: 0x22A14, size: 0x8, addend: 0x0, symName: __ZNSt3__16vectorIP11nodeTypeTagNS_9allocatorIS2_EEE9__end_capB8ue170006Ev, symObjAddr: 0xA7C0, symBinAddr: 0x10000BAF0, symSize: 0x20 }
  - { offsetInCU: 0x22A3A, offset: 0x22A3A, size: 0x8, addend: 0x0, symName: __ZNSt3__16vectorIP11nodeTypeTagNS_9allocatorIS2_EEE22__construct_one_at_endB8ue170006IJRKS2_EEEvDpOT_, symObjAddr: 0xA7E0, symBinAddr: 0x10000BB10, symSize: 0x90 }
  - { offsetInCU: 0x22A89, offset: 0x22A89, size: 0x8, addend: 0x0, symName: __ZNSt3__16vectorIP11nodeTypeTagNS_9allocatorIS2_EEE21__push_back_slow_pathIRKS2_EEvOT_, symObjAddr: 0xA870, symBinAddr: 0x10000BBA0, symSize: 0xD0 }
  - { offsetInCU: 0x22AE7, offset: 0x22AE7, size: 0x8, addend: 0x0, symName: __ZNSt3__117__compressed_pairIPP11nodeTypeTagNS_9allocatorIS2_EEE5firstB8ue170006Ev, symObjAddr: 0xA940, symBinAddr: 0x10000BC70, symSize: 0x20 }
  - { offsetInCU: 0x22B0D, offset: 0x22B0D, size: 0x8, addend: 0x0, symName: __ZNSt3__122__compressed_pair_elemIPP11nodeTypeTagLi0ELb0EE5__getB8ue170006Ev, symObjAddr: 0xA960, symBinAddr: 0x10000BC90, symSize: 0x10 }
  - { offsetInCU: 0x22B4C, offset: 0x22B4C, size: 0x8, addend: 0x0, symName: __ZNSt3__16vectorIP11nodeTypeTagNS_9allocatorIS2_EEE21_ConstructTransactionC1B8ue170006ERS5_m, symObjAddr: 0xA970, symBinAddr: 0x10000BCA0, symSize: 0x30 }
  - { offsetInCU: 0x22B94, offset: 0x22B94, size: 0x8, addend: 0x0, symName: __ZNSt3__116allocator_traitsINS_9allocatorIP11nodeTypeTagEEE9constructB8ue170006IS3_JRKS3_EvEEvRS4_PT_DpOT0_, symObjAddr: 0xA9A0, symBinAddr: 0x10000BCD0, symSize: 0x30 }
  - { offsetInCU: 0x22BEB, offset: 0x22BEB, size: 0x8, addend: 0x0, symName: __ZNSt3__16vectorIP11nodeTypeTagNS_9allocatorIS2_EEE7__allocB8ue170006Ev, symObjAddr: 0xA9D0, symBinAddr: 0x10000BD00, symSize: 0x20 }
  - { offsetInCU: 0x22C11, offset: 0x22C11, size: 0x8, addend: 0x0, symName: __ZNSt3__16vectorIP11nodeTypeTagNS_9allocatorIS2_EEE21_ConstructTransactionD1B8ue170006Ev, symObjAddr: 0xAA00, symBinAddr: 0x10000BD30, symSize: 0x20 }
  - { offsetInCU: 0x22C3B, offset: 0x22C3B, size: 0x8, addend: 0x0, symName: __ZNSt3__16vectorIP11nodeTypeTagNS_9allocatorIS2_EEE21_ConstructTransactionC2B8ue170006ERS5_m, symObjAddr: 0xAA20, symBinAddr: 0x10000BD50, symSize: 0x40 }
  - { offsetInCU: 0x22C83, offset: 0x22C83, size: 0x8, addend: 0x0, symName: __ZNSt3__19allocatorIP11nodeTypeTagE9constructB8ue170006IS2_JRKS2_EEEvPT_DpOT0_, symObjAddr: 0xAA60, symBinAddr: 0x10000BD90, symSize: 0x20 }
  - { offsetInCU: 0x22CD9, offset: 0x22CD9, size: 0x8, addend: 0x0, symName: __ZNSt3__117__compressed_pairIPP11nodeTypeTagNS_9allocatorIS2_EEE6secondB8ue170006Ev, symObjAddr: 0xAA80, symBinAddr: 0x10000BDB0, symSize: 0x20 }
  - { offsetInCU: 0x22CFF, offset: 0x22CFF, size: 0x8, addend: 0x0, symName: __ZNSt3__122__compressed_pair_elemINS_9allocatorIP11nodeTypeTagEELi1ELb1EE5__getB8ue170006Ev, symObjAddr: 0xAAA0, symBinAddr: 0x10000BDD0, symSize: 0x10 }
  - { offsetInCU: 0x22D25, offset: 0x22D25, size: 0x8, addend: 0x0, symName: __ZNSt3__16vectorIP11nodeTypeTagNS_9allocatorIS2_EEE21_ConstructTransactionD2B8ue170006Ev, symObjAddr: 0xAAB0, symBinAddr: 0x10000BDE0, symSize: 0x20 }
  - { offsetInCU: 0x22D4F, offset: 0x22D4F, size: 0x8, addend: 0x0, symName: __ZNKSt3__16vectorIP11nodeTypeTagNS_9allocatorIS2_EEE11__recommendB8ue170006Em, symObjAddr: 0xAAD0, symBinAddr: 0x10000BE00, symSize: 0xA0 }
  - { offsetInCU: 0x22DA4, offset: 0x22DA4, size: 0x8, addend: 0x0, symName: __ZNSt3__114__split_bufferIP11nodeTypeTagRNS_9allocatorIS2_EEEC1EmmS5_, symObjAddr: 0xAB70, symBinAddr: 0x10000BEA0, symSize: 0x40 }
  - { offsetInCU: 0x22DFA, offset: 0x22DFA, size: 0x8, addend: 0x0, symName: __ZNSt3__114__split_bufferIP11nodeTypeTagRNS_9allocatorIS2_EEED1Ev, symObjAddr: 0xACD0, symBinAddr: 0x10000C000, symSize: 0x20 }
  - { offsetInCU: 0x22E26, offset: 0x22E26, size: 0x8, addend: 0x0, symName: __ZNKSt3__16vectorIP11nodeTypeTagNS_9allocatorIS2_EEE8max_sizeEv, symObjAddr: 0xACF0, symBinAddr: 0x10000C020, symSize: 0x60 }
  - { offsetInCU: 0x22E4E, offset: 0x22E4E, size: 0x8, addend: 0x0, symName: __ZNKSt3__16vectorIP11nodeTypeTagNS_9allocatorIS2_EEE20__throw_length_errorB8ue170006Ev, symObjAddr: 0xAD50, symBinAddr: 0x10000C080, symSize: 0x20 }
  - { offsetInCU: 0x22E74, offset: 0x22E74, size: 0x8, addend: 0x0, symName: __ZNKSt3__16vectorIP11nodeTypeTagNS_9allocatorIS2_EEE8capacityB8ue170006Ev, symObjAddr: 0xAD70, symBinAddr: 0x10000C0A0, symSize: 0x30 }
  - { offsetInCU: 0x22EA4, offset: 0x22EA4, size: 0x8, addend: 0x0, symName: __ZNSt3__116allocator_traitsINS_9allocatorIP11nodeTypeTagEEE8max_sizeB8ue170006IS4_vEEmRKS4_, symObjAddr: 0xADA0, symBinAddr: 0x10000C0D0, symSize: 0x20 }
  - { offsetInCU: 0x22ED2, offset: 0x22ED2, size: 0x8, addend: 0x0, symName: __ZNKSt3__16vectorIP11nodeTypeTagNS_9allocatorIS2_EEE7__allocB8ue170006Ev, symObjAddr: 0xADC0, symBinAddr: 0x10000C0F0, symSize: 0x20 }
  - { offsetInCU: 0x22EF8, offset: 0x22EF8, size: 0x8, addend: 0x0, symName: __ZNKSt3__19allocatorIP11nodeTypeTagE8max_sizeB8ue170006Ev, symObjAddr: 0xADE0, symBinAddr: 0x10000C110, symSize: 0x20 }
  - { offsetInCU: 0x22F1E, offset: 0x22F1E, size: 0x8, addend: 0x0, symName: __ZNKSt3__117__compressed_pairIPP11nodeTypeTagNS_9allocatorIS2_EEE6secondB8ue170006Ev, symObjAddr: 0xAE00, symBinAddr: 0x10000C130, symSize: 0x20 }
  - { offsetInCU: 0x22F44, offset: 0x22F44, size: 0x8, addend: 0x0, symName: __ZNKSt3__122__compressed_pair_elemINS_9allocatorIP11nodeTypeTagEELi1ELb1EE5__getB8ue170006Ev, symObjAddr: 0xAE20, symBinAddr: 0x10000C150, symSize: 0x10 }
  - { offsetInCU: 0x22F6A, offset: 0x22F6A, size: 0x8, addend: 0x0, symName: __ZNKSt3__16vectorIP11nodeTypeTagNS_9allocatorIS2_EEE9__end_capB8ue170006Ev, symObjAddr: 0xAE30, symBinAddr: 0x10000C160, symSize: 0x20 }
  - { offsetInCU: 0x22F90, offset: 0x22F90, size: 0x8, addend: 0x0, symName: __ZNKSt3__117__compressed_pairIPP11nodeTypeTagNS_9allocatorIS2_EEE5firstB8ue170006Ev, symObjAddr: 0xAE50, symBinAddr: 0x10000C180, symSize: 0x20 }
  - { offsetInCU: 0x22FB6, offset: 0x22FB6, size: 0x8, addend: 0x0, symName: __ZNKSt3__122__compressed_pair_elemIPP11nodeTypeTagLi0ELb0EE5__getB8ue170006Ev, symObjAddr: 0xAE70, symBinAddr: 0x10000C1A0, symSize: 0x10 }
  - { offsetInCU: 0x22FDC, offset: 0x22FDC, size: 0x8, addend: 0x0, symName: __ZNSt3__114__split_bufferIP11nodeTypeTagRNS_9allocatorIS2_EEEC2EmmS5_, symObjAddr: 0xAE80, symBinAddr: 0x10000C1B0, symSize: 0xD0 }
  - { offsetInCU: 0x23050, offset: 0x23050, size: 0x8, addend: 0x0, symName: __ZNSt3__117__compressed_pairIPP11nodeTypeTagRNS_9allocatorIS2_EEEC1B8ue170006IDnS6_EEOT_OT0_, symObjAddr: 0xAF50, symBinAddr: 0x10000C280, symSize: 0x30 }
  - { offsetInCU: 0x230A8, offset: 0x230A8, size: 0x8, addend: 0x0, symName: __ZNSt3__114__split_bufferIP11nodeTypeTagRNS_9allocatorIS2_EEE7__allocB8ue170006Ev, symObjAddr: 0xAFC0, symBinAddr: 0x10000C2F0, symSize: 0x20 }
  - { offsetInCU: 0x230CE, offset: 0x230CE, size: 0x8, addend: 0x0, symName: __ZNSt3__114__split_bufferIP11nodeTypeTagRNS_9allocatorIS2_EEE9__end_capB8ue170006Ev, symObjAddr: 0xAFE0, symBinAddr: 0x10000C310, symSize: 0x20 }
  - { offsetInCU: 0x230F4, offset: 0x230F4, size: 0x8, addend: 0x0, symName: __ZNSt3__117__compressed_pairIPP11nodeTypeTagRNS_9allocatorIS2_EEEC2B8ue170006IDnS6_EEOT_OT0_, symObjAddr: 0xB000, symBinAddr: 0x10000C330, symSize: 0x40 }
  - { offsetInCU: 0x2314C, offset: 0x2314C, size: 0x8, addend: 0x0, symName: __ZNSt3__122__compressed_pair_elemIPP11nodeTypeTagLi0ELb0EEC2B8ue170006IDnvEEOT_, symObjAddr: 0xB040, symBinAddr: 0x10000C370, symSize: 0x20 }
  - { offsetInCU: 0x2318E, offset: 0x2318E, size: 0x8, addend: 0x0, symName: __ZNSt3__122__compressed_pair_elemIRNS_9allocatorIP11nodeTypeTagEELi1ELb0EEC2B8ue170006IS5_vEEOT_, symObjAddr: 0xB060, symBinAddr: 0x10000C390, symSize: 0x20 }
  - { offsetInCU: 0x231D0, offset: 0x231D0, size: 0x8, addend: 0x0, symName: __ZNSt3__19allocatorIP11nodeTypeTagE8allocateB8ue170006Em, symObjAddr: 0xB080, symBinAddr: 0x10000C3B0, symSize: 0x50 }
  - { offsetInCU: 0x23204, offset: 0x23204, size: 0x8, addend: 0x0, symName: __ZNSt3__117__compressed_pairIPP11nodeTypeTagRNS_9allocatorIS2_EEE6secondB8ue170006Ev, symObjAddr: 0xB0D0, symBinAddr: 0x10000C400, symSize: 0x20 }
  - { offsetInCU: 0x2322A, offset: 0x2322A, size: 0x8, addend: 0x0, symName: __ZNSt3__122__compressed_pair_elemIRNS_9allocatorIP11nodeTypeTagEELi1ELb0EE5__getB8ue170006Ev, symObjAddr: 0xB0F0, symBinAddr: 0x10000C420, symSize: 0x20 }
  - { offsetInCU: 0x23250, offset: 0x23250, size: 0x8, addend: 0x0, symName: __ZNSt3__117__compressed_pairIPP11nodeTypeTagRNS_9allocatorIS2_EEE5firstB8ue170006Ev, symObjAddr: 0xB110, symBinAddr: 0x10000C440, symSize: 0x20 }
  - { offsetInCU: 0x23276, offset: 0x23276, size: 0x8, addend: 0x0, symName: __ZNKSt3__16vectorIP11nodeTypeTagNS_9allocatorIS2_EEE17__annotate_deleteB8ue170006Ev, symObjAddr: 0xB130, symBinAddr: 0x10000C460, symSize: 0xB0 }
  - { offsetInCU: 0x2329C, offset: 0x2329C, size: 0x8, addend: 0x0, symName: __ZNSt3__116reverse_iteratorIPP11nodeTypeTagEC1B8ue170006ES3_, symObjAddr: 0xB250, symBinAddr: 0x10000C580, symSize: 0x30 }
  - { offsetInCU: 0x232D4, offset: 0x232D4, size: 0x8, addend: 0x0, symName: __ZNKSt3__116reverse_iteratorIPP11nodeTypeTagE4baseB8ue170006Ev, symObjAddr: 0xB280, symBinAddr: 0x10000C5B0, symSize: 0x20 }
  - { offsetInCU: 0x232FA, offset: 0x232FA, size: 0x8, addend: 0x0, symName: __ZNKSt3__16vectorIP11nodeTypeTagNS_9allocatorIS2_EEE14__annotate_newB8ue170006Em, symObjAddr: 0xB2E0, symBinAddr: 0x10000C610, symSize: 0xB0 }
  - { offsetInCU: 0x2332F, offset: 0x2332F, size: 0x8, addend: 0x0, symName: __ZNKSt3__16vectorIP11nodeTypeTagNS_9allocatorIS2_EEE31__annotate_contiguous_containerB8ue170006EPKvS7_S7_S7_, symObjAddr: 0xB390, symBinAddr: 0x10000C6C0, symSize: 0x20 }
  - { offsetInCU: 0x23381, offset: 0x23381, size: 0x8, addend: 0x0, symName: __ZNKSt3__16vectorIP11nodeTypeTagNS_9allocatorIS2_EEE4dataB8ue170006Ev, symObjAddr: 0xB3B0, symBinAddr: 0x10000C6E0, symSize: 0x20 }
  - { offsetInCU: 0x233C0, offset: 0x233C0, size: 0x8, addend: 0x0, symName: __ZNKSt3__111__move_loopINS_17_ClassicAlgPolicyEEclB8ue170006INS_16reverse_iteratorIPP11nodeTypeTagEES8_S8_EENS_4pairIT_T1_EESA_T0_SB_, symObjAddr: 0xB810, symBinAddr: 0x10000CB40, symSize: 0xA0 }
  - { offsetInCU: 0x23430, offset: 0x23430, size: 0x8, addend: 0x0, symName: __ZNSt3__18_IterOpsINS_17_ClassicAlgPolicyEE11__iter_moveB8ue170006IRNS_16reverse_iteratorIPP11nodeTypeTagEEEENS_9enable_ifIXsr12is_referenceIDTdeclsr3stdE7declvalIRT_EEEEE5valueEDTclsr3stdE4movedeclsr3stdE7declvalISC_EEEEE4typeEOSB_, symObjAddr: 0xBA30, symBinAddr: 0x10000CD60, symSize: 0x20 }
  - { offsetInCU: 0x2345C, offset: 0x2345C, size: 0x8, addend: 0x0, symName: __ZNKSt3__116reverse_iteratorIPP11nodeTypeTagEdeB8ue170006Ev, symObjAddr: 0xBA50, symBinAddr: 0x10000CD80, symSize: 0x30 }
  - { offsetInCU: 0x23490, offset: 0x23490, size: 0x8, addend: 0x0, symName: __ZNSt3__116reverse_iteratorIPP11nodeTypeTagEppB8ue170006Ev, symObjAddr: 0xBA80, symBinAddr: 0x10000CDB0, symSize: 0x20 }
  - { offsetInCU: 0x234B6, offset: 0x234B6, size: 0x8, addend: 0x0, symName: __ZNSt3__18_IterOpsINS_17_ClassicAlgPolicyEE25__validate_iter_referenceB8ue170006IRNS_16reverse_iteratorIPP11nodeTypeTagEEEEvv, symObjAddr: 0xBAA0, symBinAddr: 0x10000CDD0, symSize: 0x10 }
  - { offsetInCU: 0x234D4, offset: 0x234D4, size: 0x8, addend: 0x0, symName: __ZNSt3__118__unwrap_iter_implINS_16reverse_iteratorIPP11nodeTypeTagEELb0EE8__unwrapB8ue170006ES5_, symObjAddr: 0xBAB0, symBinAddr: 0x10000CDE0, symSize: 0x20 }
  - { offsetInCU: 0x234FC, offset: 0x234FC, size: 0x8, addend: 0x0, symName: __ZNSt3__14pairINS_16reverse_iteratorIPP11nodeTypeTagEES5_EC1B8ue170006IS5_S5_LPv0EEEOT_OT0_, symObjAddr: 0xBAD0, symBinAddr: 0x10000CE00, symSize: 0x30 }
  - { offsetInCU: 0x2355A, offset: 0x2355A, size: 0x8, addend: 0x0, symName: __ZNSt3__14pairINS_16reverse_iteratorIPP11nodeTypeTagEES5_EC2B8ue170006IS5_S5_LPv0EEEOT_OT0_, symObjAddr: 0xBB00, symBinAddr: 0x10000CE30, symSize: 0x40 }
  - { offsetInCU: 0x235B8, offset: 0x235B8, size: 0x8, addend: 0x0, symName: __ZNSt3__118__unwrap_iter_implINS_16reverse_iteratorIPP11nodeTypeTagEELb0EE8__rewrapB8ue170006ES5_S5_, symObjAddr: 0xBB40, symBinAddr: 0x10000CE70, symSize: 0x30 }
  - { offsetInCU: 0x235E6, offset: 0x235E6, size: 0x8, addend: 0x0, symName: __ZNSt3__116reverse_iteratorIPP11nodeTypeTagEC2B8ue170006ES3_, symObjAddr: 0xBB70, symBinAddr: 0x10000CEA0, symSize: 0x30 }
  - { offsetInCU: 0x2361E, offset: 0x2361E, size: 0x8, addend: 0x0, symName: __ZNSt3__114__split_bufferIP11nodeTypeTagRNS_9allocatorIS2_EEED2Ev, symObjAddr: 0xBBA0, symBinAddr: 0x10000CED0, symSize: 0x70 }
  - { offsetInCU: 0x2364A, offset: 0x2364A, size: 0x8, addend: 0x0, symName: __ZNSt3__114__split_bufferIP11nodeTypeTagRNS_9allocatorIS2_EEE5clearB8ue170006Ev, symObjAddr: 0xBC10, symBinAddr: 0x10000CF40, symSize: 0x20 }
  - { offsetInCU: 0x23670, offset: 0x23670, size: 0x8, addend: 0x0, symName: __ZNSt3__116allocator_traitsINS_9allocatorIP11nodeTypeTagEEE10deallocateB8ue170006ERS4_PS3_m, symObjAddr: 0xBC30, symBinAddr: 0x10000CF60, symSize: 0x30 }
  - { offsetInCU: 0x236B2, offset: 0x236B2, size: 0x8, addend: 0x0, symName: __ZNKSt3__114__split_bufferIP11nodeTypeTagRNS_9allocatorIS2_EEE8capacityB8ue170006Ev, symObjAddr: 0xBC60, symBinAddr: 0x10000CF90, symSize: 0x30 }
  - { offsetInCU: 0x236D8, offset: 0x236D8, size: 0x8, addend: 0x0, symName: __ZNSt3__114__split_bufferIP11nodeTypeTagRNS_9allocatorIS2_EEE17__destruct_at_endB8ue170006EPS2_, symObjAddr: 0xBC90, symBinAddr: 0x10000CFC0, symSize: 0x30 }
  - { offsetInCU: 0x2370C, offset: 0x2370C, size: 0x8, addend: 0x0, symName: __ZNSt3__114__split_bufferIP11nodeTypeTagRNS_9allocatorIS2_EEE17__destruct_at_endB8ue170006EPS2_NS_17integral_constantIbLb0EEE, symObjAddr: 0xBCC0, symBinAddr: 0x10000CFF0, symSize: 0x80 }
  - { offsetInCU: 0x2374D, offset: 0x2374D, size: 0x8, addend: 0x0, symName: __ZNSt3__116allocator_traitsINS_9allocatorIP11nodeTypeTagEEE7destroyB8ue170006IS3_vEEvRS4_PT_, symObjAddr: 0xBD40, symBinAddr: 0x10000D070, symSize: 0x30 }
  - { offsetInCU: 0x2378A, offset: 0x2378A, size: 0x8, addend: 0x0, symName: __ZNSt3__19allocatorIP11nodeTypeTagE7destroyB8ue170006EPS2_, symObjAddr: 0xBD70, symBinAddr: 0x10000D0A0, symSize: 0x10 }
  - { offsetInCU: 0x237BE, offset: 0x237BE, size: 0x8, addend: 0x0, symName: __ZNSt3__19allocatorIP11nodeTypeTagE10deallocateB8ue170006EPS2_m, symObjAddr: 0xBD80, symBinAddr: 0x10000D0B0, symSize: 0x40 }
  - { offsetInCU: 0x23800, offset: 0x23800, size: 0x8, addend: 0x0, symName: __ZNKSt3__114__split_bufferIP11nodeTypeTagRNS_9allocatorIS2_EEE9__end_capB8ue170006Ev, symObjAddr: 0xBDC0, symBinAddr: 0x10000D0F0, symSize: 0x20 }
  - { offsetInCU: 0x23826, offset: 0x23826, size: 0x8, addend: 0x0, symName: __ZNKSt3__117__compressed_pairIPP11nodeTypeTagRNS_9allocatorIS2_EEE5firstB8ue170006Ev, symObjAddr: 0xBDE0, symBinAddr: 0x10000D110, symSize: 0x20 }
  - { offsetInCU: 0x2384C, offset: 0x2384C, size: 0x8, addend: 0x0, symName: __ZNSt3__112basic_stringIcNS_11char_traitsIcEENS_9allocatorIcEEEC2B8ue170006ILi0EEEPKc, symObjAddr: 0xBE00, symBinAddr: 0x10000D130, symSize: 0x50 }
  - { offsetInCU: 0x2388B, offset: 0x2388B, size: 0x8, addend: 0x0, symName: __ZNSt3__117__compressed_pairINS_12basic_stringIcNS_11char_traitsIcEENS_9allocatorIcEEE5__repES5_EC1B8ue170006INS_18__default_init_tagESA_EEOT_OT0_, symObjAddr: 0xBE50, symBinAddr: 0x10000D180, symSize: 0x30 }
  - { offsetInCU: 0x238E3, offset: 0x238E3, size: 0x8, addend: 0x0, symName: __ZNSt3__111char_traitsIcE6lengthB8ue170006EPKc, symObjAddr: 0xBE80, symBinAddr: 0x10000D1B0, symSize: 0x30 }
  - { offsetInCU: 0x23906, offset: 0x23906, size: 0x8, addend: 0x0, symName: __ZNSt3__117__compressed_pairINS_12basic_stringIcNS_11char_traitsIcEENS_9allocatorIcEEE5__repES5_EC2B8ue170006INS_18__default_init_tagESA_EEOT_OT0_, symObjAddr: 0xBEB0, symBinAddr: 0x10000D1E0, symSize: 0x30 }
  - { offsetInCU: 0x2395E, offset: 0x2395E, size: 0x8, addend: 0x0, symName: __ZNSt3__122__compressed_pair_elemINS_12basic_stringIcNS_11char_traitsIcEENS_9allocatorIcEEE5__repELi0ELb0EEC2B8ue170006ENS_18__default_init_tagE, symObjAddr: 0xBEE0, symBinAddr: 0x10000D210, symSize: 0x10 }
  - { offsetInCU: 0x23993, offset: 0x23993, size: 0x8, addend: 0x0, symName: __ZNSt3__122__compressed_pair_elemINS_9allocatorIcEELi1ELb1EEC2B8ue170006ENS_18__default_init_tagE, symObjAddr: 0xBEF0, symBinAddr: 0x10000D220, symSize: 0x20 }
  - { offsetInCU: 0x239C8, offset: 0x239C8, size: 0x8, addend: 0x0, symName: __ZNSt3__19allocatorIcEC2B8ue170006Ev, symObjAddr: 0xBF10, symBinAddr: 0x10000D240, symSize: 0x20 }
  - { offsetInCU: 0x239F2, offset: 0x239F2, size: 0x8, addend: 0x0, symName: __ZNSt3__116__non_trivial_ifILb1ENS_9allocatorIcEEEC2B8ue170006Ev, symObjAddr: 0xBF30, symBinAddr: 0x10000D260, symSize: 0x10 }
  - { offsetInCU: 0x23A30, offset: 0x23A30, size: 0x8, addend: 0x0, symName: __ZNSt3__112__hash_tableINS_17__hash_value_typeINS_12basic_stringIcNS_11char_traitsIcEENS_9allocatorIcEEEEbEENS_22__unordered_map_hasherIS7_S8_NS_4hashIS7_EENS_8equal_toIS7_EELb1EEENS_21__unordered_map_equalIS7_S8_SD_SB_Lb1EEENS5_IS8_EEE25__emplace_unique_key_argsIS7_JRKNS_21piecewise_construct_tENS_5tupleIJOS7_EEENSN_IJEEEEEENS_4pairINS_15__hash_iteratorIPNS_11__hash_nodeIS8_PvEEEEbEERKT_DpOT0_, symObjAddr: 0xBF60, symBinAddr: 0x10000D290, symSize: 0x660 }
  - { offsetInCU: 0x23B39, offset: 0x23B39, size: 0x8, addend: 0x0, symName: __ZNKSt3__115__hash_iteratorIPNS_11__hash_nodeINS_17__hash_value_typeINS_12basic_stringIcNS_11char_traitsIcEENS_9allocatorIcEEEEbEEPvEEEptB8ue170006Ev, symObjAddr: 0xC600, symBinAddr: 0x10000D930, symSize: 0x30 }
  - { offsetInCU: 0x23B5F, offset: 0x23B5F, size: 0x8, addend: 0x0, symName: __ZNSt3__117__hash_value_typeINS_12basic_stringIcNS_11char_traitsIcEENS_9allocatorIcEEEEbE11__get_valueB8ue170006Ev, symObjAddr: 0xC630, symBinAddr: 0x10000D960, symSize: 0x10 }
  - { offsetInCU: 0x23B85, offset: 0x23B85, size: 0x8, addend: 0x0, symName: __ZNSt3__112__hash_tableINS_17__hash_value_typeINS_12basic_stringIcNS_11char_traitsIcEENS_9allocatorIcEEEEbEENS_22__unordered_map_hasherIS7_S8_NS_4hashIS7_EENS_8equal_toIS7_EELb1EEENS_21__unordered_map_equalIS7_S8_SD_SB_Lb1EEENS5_IS8_EEE13hash_functionB8ue170006Ev, symObjAddr: 0xC640, symBinAddr: 0x10000D970, symSize: 0x20 }
  - { offsetInCU: 0x23BAB, offset: 0x23BAB, size: 0x8, addend: 0x0, symName: __ZNKSt3__122__unordered_map_hasherINS_12basic_stringIcNS_11char_traitsIcEENS_9allocatorIcEEEENS_17__hash_value_typeIS6_bEENS_4hashIS6_EENS_8equal_toIS6_EELb1EEclB8ue170006ERKS6_, symObjAddr: 0xC660, symBinAddr: 0x10000D990, symSize: 0x30 }
  - { offsetInCU: 0x23BE0, offset: 0x23BE0, size: 0x8, addend: 0x0, symName: __ZNKSt3__112__hash_tableINS_17__hash_value_typeINS_12basic_stringIcNS_11char_traitsIcEENS_9allocatorIcEEEEbEENS_22__unordered_map_hasherIS7_S8_NS_4hashIS7_EENS_8equal_toIS7_EELb1EEENS_21__unordered_map_equalIS7_S8_SD_SB_Lb1EEENS5_IS8_EEE12bucket_countB8ue170006Ev, symObjAddr: 0xC690, symBinAddr: 0x10000D9C0, symSize: 0x30 }
  - { offsetInCU: 0x23C06, offset: 0x23C06, size: 0x8, addend: 0x0, symName: __ZNKSt3__110unique_ptrIA_PNS_16__hash_node_baseIPNS_11__hash_nodeINS_17__hash_value_typeINS_12basic_stringIcNS_11char_traitsIcEENS_9allocatorIcEEEEbEEPvEEEENS_25__bucket_list_deallocatorINS7_ISF_EEEEEixB8ue170006Em, symObjAddr: 0xC740, symBinAddr: 0x10000DA70, symSize: 0x30 }
  - { offsetInCU: 0x23C3B, offset: 0x23C3B, size: 0x8, addend: 0x0, symName: __ZNKSt3__116__hash_node_baseIPNS_11__hash_nodeINS_17__hash_value_typeINS_12basic_stringIcNS_11char_traitsIcEENS_9allocatorIcEEEEbEEPvEEE6__hashB8ue170006Ev, symObjAddr: 0xC770, symBinAddr: 0x10000DAA0, symSize: 0x20 }
  - { offsetInCU: 0x23C61, offset: 0x23C61, size: 0x8, addend: 0x0, symName: __ZNSt3__112__hash_tableINS_17__hash_value_typeINS_12basic_stringIcNS_11char_traitsIcEENS_9allocatorIcEEEEbEENS_22__unordered_map_hasherIS7_S8_NS_4hashIS7_EENS_8equal_toIS7_EELb1EEENS_21__unordered_map_equalIS7_S8_SD_SB_Lb1EEENS5_IS8_EEE6key_eqB8ue170006Ev, symObjAddr: 0xC790, symBinAddr: 0x10000DAC0, symSize: 0x20 }
  - { offsetInCU: 0x23C87, offset: 0x23C87, size: 0x8, addend: 0x0, symName: __ZNKSt3__121__unordered_map_equalINS_12basic_stringIcNS_11char_traitsIcEENS_9allocatorIcEEEENS_17__hash_value_typeIS6_bEENS_8equal_toIS6_EENS_4hashIS6_EELb1EEclB8ue170006ERKS8_RKS6_, symObjAddr: 0xC7B0, symBinAddr: 0x10000DAE0, symSize: 0x40 }
  - { offsetInCU: 0x23CCB, offset: 0x23CCB, size: 0x8, addend: 0x0, symName: __ZNSt3__116__hash_node_baseIPNS_11__hash_nodeINS_17__hash_value_typeINS_12basic_stringIcNS_11char_traitsIcEENS_9allocatorIcEEEEbEEPvEEE8__upcastB8ue170006Ev, symObjAddr: 0xC7F0, symBinAddr: 0x10000DB20, symSize: 0x20 }
  - { offsetInCU: 0x23CF1, offset: 0x23CF1, size: 0x8, addend: 0x0, symName: __ZNSt3__112__hash_tableINS_17__hash_value_typeINS_12basic_stringIcNS_11char_traitsIcEENS_9allocatorIcEEEEbEENS_22__unordered_map_hasherIS7_S8_NS_4hashIS7_EENS_8equal_toIS7_EELb1EEENS_21__unordered_map_equalIS7_S8_SD_SB_Lb1EEENS5_IS8_EEE21__construct_node_hashIRKNS_21piecewise_construct_tEJNS_5tupleIJOS7_EEENSN_IJEEEEEENS_10unique_ptrINS_11__hash_nodeIS8_PvEENS_22__hash_node_destructorINS5_ISU_EEEEEEmOT_DpOT0_, symObjAddr: 0xC810, symBinAddr: 0x10000DB40, symSize: 0x150 }
  - { offsetInCU: 0x23D8D, offset: 0x23D8D, size: 0x8, addend: 0x0, symName: __ZNSt3__112__hash_tableINS_17__hash_value_typeINS_12basic_stringIcNS_11char_traitsIcEENS_9allocatorIcEEEEbEENS_22__unordered_map_hasherIS7_S8_NS_4hashIS7_EENS_8equal_toIS7_EELb1EEENS_21__unordered_map_equalIS7_S8_SD_SB_Lb1EEENS5_IS8_EEE4sizeB8ue170006Ev, symObjAddr: 0xC960, symBinAddr: 0x10000DC90, symSize: 0x20 }
  - { offsetInCU: 0x23DB3, offset: 0x23DB3, size: 0x8, addend: 0x0, symName: __ZNSt3__112__hash_tableINS_17__hash_value_typeINS_12basic_stringIcNS_11char_traitsIcEENS_9allocatorIcEEEEbEENS_22__unordered_map_hasherIS7_S8_NS_4hashIS7_EENS_8equal_toIS7_EELb1EEENS_21__unordered_map_equalIS7_S8_SD_SB_Lb1EEENS5_IS8_EEE15max_load_factorB8ue170006Ev, symObjAddr: 0xC980, symBinAddr: 0x10000DCB0, symSize: 0x20 }
  - { offsetInCU: 0x23DD9, offset: 0x23DD9, size: 0x8, addend: 0x0, symName: __ZNSt3__112__hash_tableINS_17__hash_value_typeINS_12basic_stringIcNS_11char_traitsIcEENS_9allocatorIcEEEEbEENS_22__unordered_map_hasherIS7_S8_NS_4hashIS7_EENS_8equal_toIS7_EELb1EEENS_21__unordered_map_equalIS7_S8_SD_SB_Lb1EEENS5_IS8_EEE15__rehash_uniqueB8ue170006Em, symObjAddr: 0xC9A0, symBinAddr: 0x10000DCD0, symSize: 0x30 }
  - { offsetInCU: 0x23E0D, offset: 0x23E0D, size: 0x8, addend: 0x0, symName: __Z4ceilB8ue170006f, symObjAddr: 0xCA10, symBinAddr: 0x10000DD40, symSize: 0x20 }
  - { offsetInCU: 0x23E3C, offset: 0x23E3C, size: 0x8, addend: 0x0, symName: __ZNSt3__117__compressed_pairINS_16__hash_node_baseIPNS_11__hash_nodeINS_17__hash_value_typeINS_12basic_stringIcNS_11char_traitsIcEENS_9allocatorIcEEEEbEEPvEEEENS7_ISC_EEE5firstB8ue170006Ev, symObjAddr: 0xCA30, symBinAddr: 0x10000DD60, symSize: 0x20 }
  - { offsetInCU: 0x23E62, offset: 0x23E62, size: 0x8, addend: 0x0, symName: __ZNSt3__116__hash_node_baseIPNS_11__hash_nodeINS_17__hash_value_typeINS_12basic_stringIcNS_11char_traitsIcEENS_9allocatorIcEEEEbEEPvEEE5__ptrB8ue170006Ev, symObjAddr: 0xCA50, symBinAddr: 0x10000DD80, symSize: 0x20 }
  - { offsetInCU: 0x23E88, offset: 0x23E88, size: 0x8, addend: 0x0, symName: __ZNKSt3__110unique_ptrINS_11__hash_nodeINS_17__hash_value_typeINS_12basic_stringIcNS_11char_traitsIcEENS_9allocatorIcEEEEbEEPvEENS_22__hash_node_destructorINS6_ISB_EEEEEptB8ue170006Ev, symObjAddr: 0xCA70, symBinAddr: 0x10000DDA0, symSize: 0x20 }
  - { offsetInCU: 0x23EAE, offset: 0x23EAE, size: 0x8, addend: 0x0, symName: __ZNKSt3__110unique_ptrINS_11__hash_nodeINS_17__hash_value_typeINS_12basic_stringIcNS_11char_traitsIcEENS_9allocatorIcEEEEbEEPvEENS_22__hash_node_destructorINS6_ISB_EEEEE3getB8ue170006Ev, symObjAddr: 0xCA90, symBinAddr: 0x10000DDC0, symSize: 0x20 }
  - { offsetInCU: 0x23ED4, offset: 0x23ED4, size: 0x8, addend: 0x0, symName: __ZNSt3__110unique_ptrINS_11__hash_nodeINS_17__hash_value_typeINS_12basic_stringIcNS_11char_traitsIcEENS_9allocatorIcEEEEbEEPvEENS_22__hash_node_destructorINS6_ISB_EEEEE7releaseB8ue170006Ev, symObjAddr: 0xCAB0, symBinAddr: 0x10000DDE0, symSize: 0x40 }
  - { offsetInCU: 0x23F09, offset: 0x23F09, size: 0x8, addend: 0x0, symName: __ZNSt3__110unique_ptrINS_11__hash_nodeINS_17__hash_value_typeINS_12basic_stringIcNS_11char_traitsIcEENS_9allocatorIcEEEEbEEPvEENS_22__hash_node_destructorINS6_ISB_EEEEED1B8ue170006Ev, symObjAddr: 0xCAF0, symBinAddr: 0x10000DE20, symSize: 0x20 }
  - { offsetInCU: 0x23F33, offset: 0x23F33, size: 0x8, addend: 0x0, symName: __ZNSt3__115__hash_iteratorIPNS_11__hash_nodeINS_17__hash_value_typeINS_12basic_stringIcNS_11char_traitsIcEENS_9allocatorIcEEEEbEEPvEEEC1B8ue170006EPNS_16__hash_node_baseISC_EE, symObjAddr: 0xCB10, symBinAddr: 0x10000DE40, symSize: 0x30 }
  - { offsetInCU: 0x23F76, offset: 0x23F76, size: 0x8, addend: 0x0, symName: __ZNSt3__14pairINS_15__hash_iteratorIPNS_11__hash_nodeINS_17__hash_value_typeINS_12basic_stringIcNS_11char_traitsIcEENS_9allocatorIcEEEEbEEPvEEEEbEC1B8ue170006ISE_RbLSB_0EEEOT_OT0_, symObjAddr: 0xCB40, symBinAddr: 0x10000DE70, symSize: 0x30 }
  - { offsetInCU: 0x23FD4, offset: 0x23FD4, size: 0x8, addend: 0x0, symName: __ZNSt3__117__compressed_pairImNS_22__unordered_map_hasherINS_12basic_stringIcNS_11char_traitsIcEENS_9allocatorIcEEEENS_17__hash_value_typeIS7_bEENS_4hashIS7_EENS_8equal_toIS7_EELb1EEEE6secondB8ue170006Ev, symObjAddr: 0xCB70, symBinAddr: 0x10000DEA0, symSize: 0x20 }
  - { offsetInCU: 0x23FFA, offset: 0x23FFA, size: 0x8, addend: 0x0, symName: __ZNSt3__122__compressed_pair_elemINS_22__unordered_map_hasherINS_12basic_stringIcNS_11char_traitsIcEENS_9allocatorIcEEEENS_17__hash_value_typeIS7_bEENS_4hashIS7_EENS_8equal_toIS7_EELb1EEELi1ELb1EE5__getB8ue170006Ev, symObjAddr: 0xCB90, symBinAddr: 0x10000DEC0, symSize: 0x10 }
  - { offsetInCU: 0x24020, offset: 0x24020, size: 0x8, addend: 0x0, symName: __ZNKSt3__113__string_hashIcNS_9allocatorIcEEEclB8ue170006ERKNS_12basic_stringIcNS_11char_traitsIcEES2_EE, symObjAddr: 0xCBA0, symBinAddr: 0x10000DED0, symSize: 0x60 }
  - { offsetInCU: 0x24055, offset: 0x24055, size: 0x8, addend: 0x0, symName: __ZNKSt3__112basic_stringIcNS_11char_traitsIcEENS_9allocatorIcEEE4sizeB8ue170006Ev, symObjAddr: 0xCC40, symBinAddr: 0x10000DF70, symSize: 0x50 }
  - { offsetInCU: 0x2407B, offset: 0x2407B, size: 0x8, addend: 0x0, symName: __ZNKSt3__121__murmur2_or_cityhashImLm64EEclB8ue170006EPKvm, symObjAddr: 0xCC90, symBinAddr: 0x10000DFC0, symSize: 0x3D0 }
  - { offsetInCU: 0x24113, offset: 0x24113, size: 0x8, addend: 0x0, symName: __ZNSt3__121__murmur2_or_cityhashImLm64EE18__hash_len_0_to_16B8ue170006EPKcm, symObjAddr: 0xD060, symBinAddr: 0x10000E390, symSize: 0x180 }
  - { offsetInCU: 0x241EF, offset: 0x241EF, size: 0x8, addend: 0x0, symName: __ZNSt3__121__murmur2_or_cityhashImLm64EE19__hash_len_17_to_32B8ue170006EPKcm, symObjAddr: 0xD1E0, symBinAddr: 0x10000E510, symSize: 0x100 }
  - { offsetInCU: 0x24258, offset: 0x24258, size: 0x8, addend: 0x0, symName: __ZNSt3__121__murmur2_or_cityhashImLm64EE19__hash_len_33_to_64B8ue170006EPKcm, symObjAddr: 0xD2E0, symBinAddr: 0x10000E610, symSize: 0x260 }
  - { offsetInCU: 0x2430D, offset: 0x2430D, size: 0x8, addend: 0x0, symName: __ZNSt3__121__murmur2_or_cityhashImLm64EE13__hash_len_16B8ue170006Emm, symObjAddr: 0xD560, symBinAddr: 0x10000E890, symSize: 0x90 }
  - { offsetInCU: 0x24368, offset: 0x24368, size: 0x8, addend: 0x0, symName: __ZNSt3__121__murmur2_or_cityhashImLm64EE29__weak_hash_len_32_with_seedsB8ue170006EPKcmm, symObjAddr: 0xD5F0, symBinAddr: 0x10000E920, symSize: 0x90 }
  - { offsetInCU: 0x243A7, offset: 0x243A7, size: 0x8, addend: 0x0, symName: __ZNSt3__121__murmur2_or_cityhashImLm64EE8__rotateB8ue170006Emi, symObjAddr: 0xD680, symBinAddr: 0x10000E9B0, symSize: 0x50 }
  - { offsetInCU: 0x243D8, offset: 0x243D8, size: 0x8, addend: 0x0, symName: __ZNSt3__14pairImmEaSB8ue170006EOS1_, symObjAddr: 0xD6D0, symBinAddr: 0x10000EA00, symSize: 0x30 }
  - { offsetInCU: 0x2440D, offset: 0x2440D, size: 0x8, addend: 0x0, symName: __ZNSt3__121__murmur2_or_cityhashImLm64EE11__shift_mixB8ue170006Em, symObjAddr: 0xD740, symBinAddr: 0x10000EA70, symSize: 0x20 }
  - { offsetInCU: 0x24430, offset: 0x24430, size: 0x8, addend: 0x0, symName: __ZNSt3__121__murmur2_or_cityhashImLm64EE22__rotate_by_at_least_1B8ue170006Emi, symObjAddr: 0xD760, symBinAddr: 0x10000EA90, symSize: 0x30 }
  - { offsetInCU: 0x24461, offset: 0x24461, size: 0x8, addend: 0x0, symName: __ZNSt3__121__murmur2_or_cityhashImLm64EE29__weak_hash_len_32_with_seedsB8ue170006Emmmmmm, symObjAddr: 0xD7B0, symBinAddr: 0x10000EAE0, symSize: 0xD0 }
  - { offsetInCU: 0x244DE, offset: 0x244DE, size: 0x8, addend: 0x0, symName: __ZNSt3__14pairImmEC1B8ue170006ImmLPv0EEEOT_OT0_, symObjAddr: 0xD880, symBinAddr: 0x10000EBB0, symSize: 0x30 }
  - { offsetInCU: 0x2453C, offset: 0x2453C, size: 0x8, addend: 0x0, symName: __ZNSt3__14pairImmEC2B8ue170006ImmLPv0EEEOT_OT0_, symObjAddr: 0xD8B0, symBinAddr: 0x10000EBE0, symSize: 0x30 }
  - { offsetInCU: 0x2459A, offset: 0x2459A, size: 0x8, addend: 0x0, symName: __ZNKSt3__112basic_stringIcNS_11char_traitsIcEENS_9allocatorIcEEE15__get_long_sizeB8ue170006Ev, symObjAddr: 0xD8E0, symBinAddr: 0x10000EC10, symSize: 0x20 }
  - { offsetInCU: 0x245C0, offset: 0x245C0, size: 0x8, addend: 0x0, symName: __ZNKSt3__112basic_stringIcNS_11char_traitsIcEENS_9allocatorIcEEE16__get_short_sizeB8ue170006Ev, symObjAddr: 0xD900, symBinAddr: 0x10000EC30, symSize: 0x30 }
  - { offsetInCU: 0x245E6, offset: 0x245E6, size: 0x8, addend: 0x0, symName: __ZNKSt3__110unique_ptrIA_PNS_16__hash_node_baseIPNS_11__hash_nodeINS_17__hash_value_typeINS_12basic_stringIcNS_11char_traitsIcEENS_9allocatorIcEEEEbEEPvEEEENS_25__bucket_list_deallocatorINS7_ISF_EEEEE11get_deleterB8ue170006Ev, symObjAddr: 0xD930, symBinAddr: 0x10000EC60, symSize: 0x20 }
  - { offsetInCU: 0x2460C, offset: 0x2460C, size: 0x8, addend: 0x0, symName: __ZNKSt3__125__bucket_list_deallocatorINS_9allocatorIPNS_16__hash_node_baseIPNS_11__hash_nodeINS_17__hash_value_typeINS_12basic_stringIcNS_11char_traitsIcEENS1_IcEEEEbEEPvEEEEEEE4sizeB8ue170006Ev, symObjAddr: 0xD950, symBinAddr: 0x10000EC80, symSize: 0x20 }
  - { offsetInCU: 0x24632, offset: 0x24632, size: 0x8, addend: 0x0, symName: __ZNKSt3__117__compressed_pairIPPNS_16__hash_node_baseIPNS_11__hash_nodeINS_17__hash_value_typeINS_12basic_stringIcNS_11char_traitsIcEENS_9allocatorIcEEEEbEEPvEEEENS_25__bucket_list_deallocatorINS7_ISF_EEEEE6secondB8ue170006Ev, symObjAddr: 0xD970, symBinAddr: 0x10000ECA0, symSize: 0x20 }
  - { offsetInCU: 0x24658, offset: 0x24658, size: 0x8, addend: 0x0, symName: __ZNKSt3__122__compressed_pair_elemINS_25__bucket_list_deallocatorINS_9allocatorIPNS_16__hash_node_baseIPNS_11__hash_nodeINS_17__hash_value_typeINS_12basic_stringIcNS_11char_traitsIcEENS2_IcEEEEbEEPvEEEEEEEELi1ELb0EE5__getB8ue170006Ev, symObjAddr: 0xD990, symBinAddr: 0x10000ECC0, symSize: 0x10 }
  - { offsetInCU: 0x2467E, offset: 0x2467E, size: 0x8, addend: 0x0, symName: __ZNKSt3__117__compressed_pairImNS_9allocatorIPNS_16__hash_node_baseIPNS_11__hash_nodeINS_17__hash_value_typeINS_12basic_stringIcNS_11char_traitsIcEENS1_IcEEEEbEEPvEEEEEEE5firstB8ue170006Ev, symObjAddr: 0xD9A0, symBinAddr: 0x10000ECD0, symSize: 0x20 }
  - { offsetInCU: 0x246A4, offset: 0x246A4, size: 0x8, addend: 0x0, symName: __ZNKSt3__122__compressed_pair_elemImLi0ELb0EE5__getB8ue170006Ev, symObjAddr: 0xD9C0, symBinAddr: 0x10000ECF0, symSize: 0x10 }
  - { offsetInCU: 0x246CA, offset: 0x246CA, size: 0x8, addend: 0x0, symName: __ZNKSt3__117__compressed_pairIPPNS_16__hash_node_baseIPNS_11__hash_nodeINS_17__hash_value_typeINS_12basic_stringIcNS_11char_traitsIcEENS_9allocatorIcEEEEbEEPvEEEENS_25__bucket_list_deallocatorINS7_ISF_EEEEE5firstB8ue170006Ev, symObjAddr: 0xD9D0, symBinAddr: 0x10000ED00, symSize: 0x20 }
  - { offsetInCU: 0x246F0, offset: 0x246F0, size: 0x8, addend: 0x0, symName: __ZNKSt3__122__compressed_pair_elemIPPNS_16__hash_node_baseIPNS_11__hash_nodeINS_17__hash_value_typeINS_12basic_stringIcNS_11char_traitsIcEENS_9allocatorIcEEEEbEEPvEEEELi0ELb0EE5__getB8ue170006Ev, symObjAddr: 0xD9F0, symBinAddr: 0x10000ED20, symSize: 0x10 }
  - { offsetInCU: 0x24716, offset: 0x24716, size: 0x8, addend: 0x0, symName: __ZNSt3__117__compressed_pairIfNS_21__unordered_map_equalINS_12basic_stringIcNS_11char_traitsIcEENS_9allocatorIcEEEENS_17__hash_value_typeIS7_bEENS_8equal_toIS7_EENS_4hashIS7_EELb1EEEE6secondB8ue170006Ev, symObjAddr: 0xDA00, symBinAddr: 0x10000ED30, symSize: 0x20 }
  - { offsetInCU: 0x2473C, offset: 0x2473C, size: 0x8, addend: 0x0, symName: __ZNSt3__122__compressed_pair_elemINS_21__unordered_map_equalINS_12basic_stringIcNS_11char_traitsIcEENS_9allocatorIcEEEENS_17__hash_value_typeIS7_bEENS_8equal_toIS7_EENS_4hashIS7_EELb1EEELi1ELb1EE5__getB8ue170006Ev, symObjAddr: 0xDA20, symBinAddr: 0x10000ED50, symSize: 0x10 }
  - { offsetInCU: 0x24762, offset: 0x24762, size: 0x8, addend: 0x0, symName: __ZNKSt3__18equal_toINS_12basic_stringIcNS_11char_traitsIcEENS_9allocatorIcEEEEEclB8ue170006ERKS6_S9_, symObjAddr: 0xDA30, symBinAddr: 0x10000ED60, symSize: 0x30 }
  - { offsetInCU: 0x247A6, offset: 0x247A6, size: 0x8, addend: 0x0, symName: __ZNKSt3__117__hash_value_typeINS_12basic_stringIcNS_11char_traitsIcEENS_9allocatorIcEEEEbE11__get_valueB8ue170006Ev, symObjAddr: 0xDA60, symBinAddr: 0x10000ED90, symSize: 0x10 }
  - { offsetInCU: 0x247CC, offset: 0x247CC, size: 0x8, addend: 0x0, symName: __ZNSt3__111char_traitsIcE7compareB8ue170006EPKcS3_m, symObjAddr: 0xDB80, symBinAddr: 0x10000EEB0, symSize: 0x30 }
  - { offsetInCU: 0x2480B, offset: 0x2480B, size: 0x8, addend: 0x0, symName: __ZNSt3__114pointer_traitsIPNS_16__hash_node_baseIPNS_11__hash_nodeINS_17__hash_value_typeINS_12basic_stringIcNS_11char_traitsIcEENS_9allocatorIcEEEEbEEPvEEEEE10pointer_toB8ue170006ERSE_, symObjAddr: 0xDBB0, symBinAddr: 0x10000EEE0, symSize: 0x10 }
  - { offsetInCU: 0x2482E, offset: 0x2482E, size: 0x8, addend: 0x0, symName: __ZNSt3__112__hash_tableINS_17__hash_value_typeINS_12basic_stringIcNS_11char_traitsIcEENS_9allocatorIcEEEEbEENS_22__unordered_map_hasherIS7_S8_NS_4hashIS7_EENS_8equal_toIS7_EELb1EEENS_21__unordered_map_equalIS7_S8_SD_SB_Lb1EEENS5_IS8_EEE12__node_allocB8ue170006Ev, symObjAddr: 0xDBC0, symBinAddr: 0x10000EEF0, symSize: 0x20 }
  - { offsetInCU: 0x24854, offset: 0x24854, size: 0x8, addend: 0x0, symName: __ZNSt3__116allocator_traitsINS_9allocatorINS_11__hash_nodeINS_17__hash_value_typeINS_12basic_stringIcNS_11char_traitsIcEENS1_IcEEEEbEEPvEEEEE8allocateB8ue170006ERSC_m, symObjAddr: 0xDBE0, symBinAddr: 0x10000EF10, symSize: 0x30 }
  - { offsetInCU: 0x24887, offset: 0x24887, size: 0x8, addend: 0x0, symName: __ZNSt3__122__hash_node_destructorINS_9allocatorINS_11__hash_nodeINS_17__hash_value_typeINS_12basic_stringIcNS_11char_traitsIcEENS1_IcEEEEbEEPvEEEEEC1B8ue170006ERSC_b, symObjAddr: 0xDC10, symBinAddr: 0x10000EF40, symSize: 0x40 }
  - { offsetInCU: 0x248D4, offset: 0x248D4, size: 0x8, addend: 0x0, symName: __ZNSt3__110unique_ptrINS_11__hash_nodeINS_17__hash_value_typeINS_12basic_stringIcNS_11char_traitsIcEENS_9allocatorIcEEEEbEEPvEENS_22__hash_node_destructorINS6_ISB_EEEEEC1B8ue170006ILb1EvEEPSB_NS_16__dependent_typeINS_27__unique_ptr_deleter_sfinaeISE_EEXT_EE20__good_rval_ref_typeE, symObjAddr: 0xDC50, symBinAddr: 0x10000EF80, symSize: 0x30 }
  - { offsetInCU: 0x24925, offset: 0x24925, size: 0x8, addend: 0x0, symName: __ZNSt3__116allocator_traitsINS_9allocatorINS_11__hash_nodeINS_17__hash_value_typeINS_12basic_stringIcNS_11char_traitsIcEENS1_IcEEEEbEEPvEEEEE9constructB8ue170006INS_4pairIKS8_bEEJRKNS_21piecewise_construct_tENS_5tupleIJOS8_EEENSL_IJEEEEvEEvRSC_PT_DpOT0_, symObjAddr: 0xDC80, symBinAddr: 0x10000EFB0, symSize: 0x40 }
  - { offsetInCU: 0x249A4, offset: 0x249A4, size: 0x8, addend: 0x0, symName: __ZNSt3__122__hash_key_value_typesINS_17__hash_value_typeINS_12basic_stringIcNS_11char_traitsIcEENS_9allocatorIcEEEEbEEE9__get_ptrB8ue170006ERS8_, symObjAddr: 0xDCC0, symBinAddr: 0x10000EFF0, symSize: 0x20 }
  - { offsetInCU: 0x249C7, offset: 0x249C7, size: 0x8, addend: 0x0, symName: __ZNSt3__110unique_ptrINS_11__hash_nodeINS_17__hash_value_typeINS_12basic_stringIcNS_11char_traitsIcEENS_9allocatorIcEEEEbEEPvEENS_22__hash_node_destructorINS6_ISB_EEEEE11get_deleterB8ue170006Ev, symObjAddr: 0xDCE0, symBinAddr: 0x10000F010, symSize: 0x20 }
  - { offsetInCU: 0x249ED, offset: 0x249ED, size: 0x8, addend: 0x0, symName: __ZNSt3__117__compressed_pairINS_16__hash_node_baseIPNS_11__hash_nodeINS_17__hash_value_typeINS_12basic_stringIcNS_11char_traitsIcEENS_9allocatorIcEEEEbEEPvEEEENS7_ISC_EEE6secondB8ue170006Ev, symObjAddr: 0xDD00, symBinAddr: 0x10000F030, symSize: 0x20 }
  - { offsetInCU: 0x24A13, offset: 0x24A13, size: 0x8, addend: 0x0, symName: __ZNSt3__122__compressed_pair_elemINS_9allocatorINS_11__hash_nodeINS_17__hash_value_typeINS_12basic_stringIcNS_11char_traitsIcEENS1_IcEEEEbEEPvEEEELi1ELb1EE5__getB8ue170006Ev, symObjAddr: 0xDD20, symBinAddr: 0x10000F050, symSize: 0x10 }
  - { offsetInCU: 0x24A39, offset: 0x24A39, size: 0x8, addend: 0x0, symName: __ZNSt3__19allocatorINS_11__hash_nodeINS_17__hash_value_typeINS_12basic_stringIcNS_11char_traitsIcEENS0_IcEEEEbEEPvEEE8allocateB8ue170006Em, symObjAddr: 0xDD30, symBinAddr: 0x10000F060, symSize: 0x50 }
  - { offsetInCU: 0x24A77, offset: 0x24A77, size: 0x8, addend: 0x0, symName: __ZNSt3__116allocator_traitsINS_9allocatorINS_11__hash_nodeINS_17__hash_value_typeINS_12basic_stringIcNS_11char_traitsIcEENS1_IcEEEEbEEPvEEEEE8max_sizeB8ue170006ISC_vEEmRKSC_, symObjAddr: 0xDD80, symBinAddr: 0x10000F0B0, symSize: 0x20 }
  - { offsetInCU: 0x24AA5, offset: 0x24AA5, size: 0x8, addend: 0x0, symName: __ZNKSt3__19allocatorINS_11__hash_nodeINS_17__hash_value_typeINS_12basic_stringIcNS_11char_traitsIcEENS0_IcEEEEbEEPvEEE8max_sizeB8ue170006Ev, symObjAddr: 0xDDA0, symBinAddr: 0x10000F0D0, symSize: 0x20 }
  - { offsetInCU: 0x24ACB, offset: 0x24ACB, size: 0x8, addend: 0x0, symName: __ZNSt3__122__hash_node_destructorINS_9allocatorINS_11__hash_nodeINS_17__hash_value_typeINS_12basic_stringIcNS_11char_traitsIcEENS1_IcEEEEbEEPvEEEEEC2B8ue170006ERSC_b, symObjAddr: 0xDDC0, symBinAddr: 0x10000F0F0, symSize: 0x30 }
  - { offsetInCU: 0x24B13, offset: 0x24B13, size: 0x8, addend: 0x0, symName: __ZNSt3__110unique_ptrINS_11__hash_nodeINS_17__hash_value_typeINS_12basic_stringIcNS_11char_traitsIcEENS_9allocatorIcEEEEbEEPvEENS_22__hash_node_destructorINS6_ISB_EEEEEC2B8ue170006ILb1EvEEPSB_NS_16__dependent_typeINS_27__unique_ptr_deleter_sfinaeISE_EEXT_EE20__good_rval_ref_typeE, symObjAddr: 0xDDF0, symBinAddr: 0x10000F120, symSize: 0x40 }
  - { offsetInCU: 0x24B64, offset: 0x24B64, size: 0x8, addend: 0x0, symName: __ZNSt3__117__compressed_pairIPNS_11__hash_nodeINS_17__hash_value_typeINS_12basic_stringIcNS_11char_traitsIcEENS_9allocatorIcEEEEbEEPvEENS_22__hash_node_destructorINS6_ISB_EEEEEC1B8ue170006IRSC_SF_EEOT_OT0_, symObjAddr: 0xDE30, symBinAddr: 0x10000F160, symSize: 0x30 }
  - { offsetInCU: 0x24BBC, offset: 0x24BBC, size: 0x8, addend: 0x0, symName: __ZNSt3__117__compressed_pairIPNS_11__hash_nodeINS_17__hash_value_typeINS_12basic_stringIcNS_11char_traitsIcEENS_9allocatorIcEEEEbEEPvEENS_22__hash_node_destructorINS6_ISB_EEEEEC2B8ue170006IRSC_SF_EEOT_OT0_, symObjAddr: 0xDE60, symBinAddr: 0x10000F190, symSize: 0x40 }
  - { offsetInCU: 0x24C14, offset: 0x24C14, size: 0x8, addend: 0x0, symName: __ZNSt3__122__compressed_pair_elemIPNS_11__hash_nodeINS_17__hash_value_typeINS_12basic_stringIcNS_11char_traitsIcEENS_9allocatorIcEEEEbEEPvEELi0ELb0EEC2B8ue170006IRSC_vEEOT_, symObjAddr: 0xDEA0, symBinAddr: 0x10000F1D0, symSize: 0x20 }
  - { offsetInCU: 0x24C56, offset: 0x24C56, size: 0x8, addend: 0x0, symName: __ZNSt3__122__compressed_pair_elemINS_22__hash_node_destructorINS_9allocatorINS_11__hash_nodeINS_17__hash_value_typeINS_12basic_stringIcNS_11char_traitsIcEENS2_IcEEEEbEEPvEEEEEELi1ELb0EEC2B8ue170006ISE_vEEOT_, symObjAddr: 0xDEC0, symBinAddr: 0x10000F1F0, symSize: 0x30 }
  - { offsetInCU: 0x24C98, offset: 0x24C98, size: 0x8, addend: 0x0, symName: __ZNSt3__19allocatorINS_11__hash_nodeINS_17__hash_value_typeINS_12basic_stringIcNS_11char_traitsIcEENS0_IcEEEEbEEPvEEE9constructB8ue170006INS_4pairIKS7_bEEJRKNS_21piecewise_construct_tENS_5tupleIJOS7_EEENSJ_IJEEEEEEvPT_DpOT0_, symObjAddr: 0xDEF0, symBinAddr: 0x10000F220, symSize: 0x40 }
  - { offsetInCU: 0x24D14, offset: 0x24D14, size: 0x8, addend: 0x0, symName: __ZNSt3__14pairIKNS_12basic_stringIcNS_11char_traitsIcEENS_9allocatorIcEEEEbEC1B8ue170006IJOS6_EJEEENS_21piecewise_construct_tENS_5tupleIJDpT_EEENSC_IJDpT0_EEE, symObjAddr: 0xDF30, symBinAddr: 0x10000F260, symSize: 0x40 }
  - { offsetInCU: 0x24D7B, offset: 0x24D7B, size: 0x8, addend: 0x0, symName: __ZNSt3__14pairIKNS_12basic_stringIcNS_11char_traitsIcEENS_9allocatorIcEEEEbEC1B8ue170006IJOS6_EJEJLm0EEJEEENS_21piecewise_construct_tERNS_5tupleIJDpT_EEERNSC_IJDpT0_EEENS_15__tuple_indicesIJXspT1_EEEENSL_IJXspT2_EEEE, symObjAddr: 0xDF70, symBinAddr: 0x10000F2A0, symSize: 0x30 }
  - { offsetInCU: 0x24E08, offset: 0x24E08, size: 0x8, addend: 0x0, symName: __ZNSt3__14pairIKNS_12basic_stringIcNS_11char_traitsIcEENS_9allocatorIcEEEEbEC2B8ue170006IJOS6_EJEJLm0EEJEEENS_21piecewise_construct_tERNS_5tupleIJDpT_EEERNSC_IJDpT0_EEENS_15__tuple_indicesIJXspT1_EEEENSL_IJXspT2_EEEE, symObjAddr: 0xDFA0, symBinAddr: 0x10000F2D0, symSize: 0x40 }
  - { offsetInCU: 0x24E95, offset: 0x24E95, size: 0x8, addend: 0x0, symName: __ZNSt3__112basic_stringIcNS_11char_traitsIcEENS_9allocatorIcEEEC1B8ue170006EOS5_, symObjAddr: 0xE000, symBinAddr: 0x10000F330, symSize: 0x30 }
  - { offsetInCU: 0x24ECE, offset: 0x24ECE, size: 0x8, addend: 0x0, symName: __ZNSt3__112__tuple_leafILm0EONS_12basic_stringIcNS_11char_traitsIcEENS_9allocatorIcEEEELb0EE3getB8ue170006Ev, symObjAddr: 0xE030, symBinAddr: 0x10000F360, symSize: 0x20 }
  - { offsetInCU: 0x24EF4, offset: 0x24EF4, size: 0x8, addend: 0x0, symName: __ZNSt3__112basic_stringIcNS_11char_traitsIcEENS_9allocatorIcEEEC2B8ue170006EOS5_, symObjAddr: 0xE050, symBinAddr: 0x10000F380, symSize: 0x50 }
  - { offsetInCU: 0x24F2D, offset: 0x24F2D, size: 0x8, addend: 0x0, symName: __ZNSt3__112basic_stringIcNS_11char_traitsIcEENS_9allocatorIcEEE14__default_initB8ue170006Ev, symObjAddr: 0xE0A0, symBinAddr: 0x10000F3D0, symSize: 0x50 }
  - { offsetInCU: 0x24F53, offset: 0x24F53, size: 0x8, addend: 0x0, symName: __ZNSt3__117__compressed_pairINS_12basic_stringIcNS_11char_traitsIcEENS_9allocatorIcEEE5__repES5_E5firstB8ue170006Ev, symObjAddr: 0xE0F0, symBinAddr: 0x10000F420, symSize: 0x20 }
  - { offsetInCU: 0x24F79, offset: 0x24F79, size: 0x8, addend: 0x0, symName: __ZNSt3__122__compressed_pair_elemINS_12basic_stringIcNS_11char_traitsIcEENS_9allocatorIcEEE5__repELi0ELb0EE5__getB8ue170006Ev, symObjAddr: 0xE110, symBinAddr: 0x10000F440, symSize: 0x10 }
  - { offsetInCU: 0x24F9F, offset: 0x24F9F, size: 0x8, addend: 0x0, symName: __ZNSt3__117__compressed_pairIPNS_11__hash_nodeINS_17__hash_value_typeINS_12basic_stringIcNS_11char_traitsIcEENS_9allocatorIcEEEEbEEPvEENS_22__hash_node_destructorINS6_ISB_EEEEE6secondB8ue170006Ev, symObjAddr: 0xE120, symBinAddr: 0x10000F450, symSize: 0x20 }
  - { offsetInCU: 0x24FC5, offset: 0x24FC5, size: 0x8, addend: 0x0, symName: __ZNSt3__122__compressed_pair_elemINS_22__hash_node_destructorINS_9allocatorINS_11__hash_nodeINS_17__hash_value_typeINS_12basic_stringIcNS_11char_traitsIcEENS2_IcEEEEbEEPvEEEEEELi1ELb0EE5__getB8ue170006Ev, symObjAddr: 0xE140, symBinAddr: 0x10000F470, symSize: 0x10 }
  - { offsetInCU: 0x24FEB, offset: 0x24FEB, size: 0x8, addend: 0x0, symName: __ZNSt3__117__compressed_pairImNS_22__unordered_map_hasherINS_12basic_stringIcNS_11char_traitsIcEENS_9allocatorIcEEEENS_17__hash_value_typeIS7_bEENS_4hashIS7_EENS_8equal_toIS7_EELb1EEEE5firstB8ue170006Ev, symObjAddr: 0xE150, symBinAddr: 0x10000F480, symSize: 0x20 }
  - { offsetInCU: 0x25011, offset: 0x25011, size: 0x8, addend: 0x0, symName: __ZNSt3__122__compressed_pair_elemImLi0ELb0EE5__getB8ue170006Ev, symObjAddr: 0xE170, symBinAddr: 0x10000F4A0, symSize: 0x10 }
  - { offsetInCU: 0x25037, offset: 0x25037, size: 0x8, addend: 0x0, symName: __ZNSt3__117__compressed_pairIfNS_21__unordered_map_equalINS_12basic_stringIcNS_11char_traitsIcEENS_9allocatorIcEEEENS_17__hash_value_typeIS7_bEENS_8equal_toIS7_EENS_4hashIS7_EELb1EEEE5firstB8ue170006Ev, symObjAddr: 0xE180, symBinAddr: 0x10000F4B0, symSize: 0x20 }
  - { offsetInCU: 0x2505D, offset: 0x2505D, size: 0x8, addend: 0x0, symName: __ZNSt3__122__compressed_pair_elemIfLi0ELb0EE5__getB8ue170006Ev, symObjAddr: 0xE1A0, symBinAddr: 0x10000F4D0, symSize: 0x10 }
  - { offsetInCU: 0x25083, offset: 0x25083, size: 0x8, addend: 0x0, symName: __ZNSt3__112__hash_tableINS_17__hash_value_typeINS_12basic_stringIcNS_11char_traitsIcEENS_9allocatorIcEEEEbEENS_22__unordered_map_hasherIS7_S8_NS_4hashIS7_EENS_8equal_toIS7_EELb1EEENS_21__unordered_map_equalIS7_S8_SD_SB_Lb1EEENS5_IS8_EEE8__rehashILb1EEEvm, symObjAddr: 0xE1B0, symBinAddr: 0x10000F4E0, symSize: 0x230 }
  - { offsetInCU: 0x250D3, offset: 0x250D3, size: 0x8, addend: 0x0, symName: __ZNSt3__112__hash_tableINS_17__hash_value_typeINS_12basic_stringIcNS_11char_traitsIcEENS_9allocatorIcEEEEbEENS_22__unordered_map_hasherIS7_S8_NS_4hashIS7_EENS_8equal_toIS7_EELb1EEENS_21__unordered_map_equalIS7_S8_SD_SB_Lb1EEENS5_IS8_EEE11__do_rehashILb1EEEvm, symObjAddr: 0xE3E0, symBinAddr: 0x10000F710, symSize: 0x250 }
  - { offsetInCU: 0x251BA, offset: 0x251BA, size: 0x8, addend: 0x0, symName: __ZNSt3__110unique_ptrIA_PNS_16__hash_node_baseIPNS_11__hash_nodeINS_17__hash_value_typeINS_12basic_stringIcNS_11char_traitsIcEENS_9allocatorIcEEEEbEEPvEEEENS_25__bucket_list_deallocatorINS7_ISF_EEEEE11get_deleterB8ue170006Ev, symObjAddr: 0xE690, symBinAddr: 0x10000F9C0, symSize: 0x20 }
  - { offsetInCU: 0x251E0, offset: 0x251E0, size: 0x8, addend: 0x0, symName: __ZNSt3__125__bucket_list_deallocatorINS_9allocatorIPNS_16__hash_node_baseIPNS_11__hash_nodeINS_17__hash_value_typeINS_12basic_stringIcNS_11char_traitsIcEENS1_IcEEEEbEEPvEEEEEEE7__allocB8ue170006Ev, symObjAddr: 0xE6B0, symBinAddr: 0x10000F9E0, symSize: 0x20 }
  - { offsetInCU: 0x25206, offset: 0x25206, size: 0x8, addend: 0x0, symName: __ZNSt3__110unique_ptrIA_PNS_16__hash_node_baseIPNS_11__hash_nodeINS_17__hash_value_typeINS_12basic_stringIcNS_11char_traitsIcEENS_9allocatorIcEEEEbEEPvEEEENS_25__bucket_list_deallocatorINS7_ISF_EEEEE5resetB8ue170006IPSF_EENS_9enable_ifIXsr28_CheckArrayPointerConversionIT_EE5valueEvE4typeESO_, symObjAddr: 0xE6D0, symBinAddr: 0x10000FA00, symSize: 0x70 }
  - { offsetInCU: 0x25253, offset: 0x25253, size: 0x8, addend: 0x0, symName: __ZNSt3__116allocator_traitsINS_9allocatorIPNS_16__hash_node_baseIPNS_11__hash_nodeINS_17__hash_value_typeINS_12basic_stringIcNS_11char_traitsIcEENS1_IcEEEEbEEPvEEEEEEE8allocateB8ue170006ERSG_m, symObjAddr: 0xE740, symBinAddr: 0x10000FA70, symSize: 0x30 }
  - { offsetInCU: 0x25286, offset: 0x25286, size: 0x8, addend: 0x0, symName: __ZNSt3__125__bucket_list_deallocatorINS_9allocatorIPNS_16__hash_node_baseIPNS_11__hash_nodeINS_17__hash_value_typeINS_12basic_stringIcNS_11char_traitsIcEENS1_IcEEEEbEEPvEEEEEEE4sizeB8ue170006Ev, symObjAddr: 0xE770, symBinAddr: 0x10000FAA0, symSize: 0x20 }
  - { offsetInCU: 0x252AC, offset: 0x252AC, size: 0x8, addend: 0x0, symName: __ZNSt3__117__compressed_pairIPPNS_16__hash_node_baseIPNS_11__hash_nodeINS_17__hash_value_typeINS_12basic_stringIcNS_11char_traitsIcEENS_9allocatorIcEEEEbEEPvEEEENS_25__bucket_list_deallocatorINS7_ISF_EEEEE6secondB8ue170006Ev, symObjAddr: 0xE790, symBinAddr: 0x10000FAC0, symSize: 0x20 }
  - { offsetInCU: 0x252D2, offset: 0x252D2, size: 0x8, addend: 0x0, symName: __ZNSt3__122__compressed_pair_elemINS_25__bucket_list_deallocatorINS_9allocatorIPNS_16__hash_node_baseIPNS_11__hash_nodeINS_17__hash_value_typeINS_12basic_stringIcNS_11char_traitsIcEENS2_IcEEEEbEEPvEEEEEEEELi1ELb0EE5__getB8ue170006Ev, symObjAddr: 0xE7B0, symBinAddr: 0x10000FAE0, symSize: 0x10 }
  - { offsetInCU: 0x252F8, offset: 0x252F8, size: 0x8, addend: 0x0, symName: __ZNSt3__117__compressed_pairImNS_9allocatorIPNS_16__hash_node_baseIPNS_11__hash_nodeINS_17__hash_value_typeINS_12basic_stringIcNS_11char_traitsIcEENS1_IcEEEEbEEPvEEEEEEE6secondB8ue170006Ev, symObjAddr: 0xE7C0, symBinAddr: 0x10000FAF0, symSize: 0x20 }
  - { offsetInCU: 0x2531E, offset: 0x2531E, size: 0x8, addend: 0x0, symName: __ZNSt3__122__compressed_pair_elemINS_9allocatorIPNS_16__hash_node_baseIPNS_11__hash_nodeINS_17__hash_value_typeINS_12basic_stringIcNS_11char_traitsIcEENS1_IcEEEEbEEPvEEEEEELi1ELb1EE5__getB8ue170006Ev, symObjAddr: 0xE7E0, symBinAddr: 0x10000FB10, symSize: 0x10 }
  - { offsetInCU: 0x25344, offset: 0x25344, size: 0x8, addend: 0x0, symName: __ZNSt3__117__compressed_pairIPPNS_16__hash_node_baseIPNS_11__hash_nodeINS_17__hash_value_typeINS_12basic_stringIcNS_11char_traitsIcEENS_9allocatorIcEEEEbEEPvEEEENS_25__bucket_list_deallocatorINS7_ISF_EEEEE5firstB8ue170006Ev, symObjAddr: 0xE7F0, symBinAddr: 0x10000FB20, symSize: 0x20 }
  - { offsetInCU: 0x2536A, offset: 0x2536A, size: 0x8, addend: 0x0, symName: __ZNSt3__125__bucket_list_deallocatorINS_9allocatorIPNS_16__hash_node_baseIPNS_11__hash_nodeINS_17__hash_value_typeINS_12basic_stringIcNS_11char_traitsIcEENS1_IcEEEEbEEPvEEEEEEEclB8ue170006EPSF_, symObjAddr: 0xE810, symBinAddr: 0x10000FB40, symSize: 0x50 }
  - { offsetInCU: 0x2539F, offset: 0x2539F, size: 0x8, addend: 0x0, symName: __ZNSt3__122__compressed_pair_elemIPPNS_16__hash_node_baseIPNS_11__hash_nodeINS_17__hash_value_typeINS_12basic_stringIcNS_11char_traitsIcEENS_9allocatorIcEEEEbEEPvEEEELi0ELb0EE5__getB8ue170006Ev, symObjAddr: 0xE860, symBinAddr: 0x10000FB90, symSize: 0x10 }
  - { offsetInCU: 0x253C5, offset: 0x253C5, size: 0x8, addend: 0x0, symName: __ZNSt3__116allocator_traitsINS_9allocatorIPNS_16__hash_node_baseIPNS_11__hash_nodeINS_17__hash_value_typeINS_12basic_stringIcNS_11char_traitsIcEENS1_IcEEEEbEEPvEEEEEEE10deallocateB8ue170006ERSG_PSF_m, symObjAddr: 0xE870, symBinAddr: 0x10000FBA0, symSize: 0x30 }
  - { offsetInCU: 0x25407, offset: 0x25407, size: 0x8, addend: 0x0, symName: __ZNSt3__19allocatorIPNS_16__hash_node_baseIPNS_11__hash_nodeINS_17__hash_value_typeINS_12basic_stringIcNS_11char_traitsIcEENS0_IcEEEEbEEPvEEEEE10deallocateB8ue170006EPSE_m, symObjAddr: 0xE8A0, symBinAddr: 0x10000FBD0, symSize: 0x40 }
  - { offsetInCU: 0x25449, offset: 0x25449, size: 0x8, addend: 0x0, symName: __ZNSt3__19allocatorIPNS_16__hash_node_baseIPNS_11__hash_nodeINS_17__hash_value_typeINS_12basic_stringIcNS_11char_traitsIcEENS0_IcEEEEbEEPvEEEEE8allocateB8ue170006Em, symObjAddr: 0xE8E0, symBinAddr: 0x10000FC10, symSize: 0x50 }
  - { offsetInCU: 0x25487, offset: 0x25487, size: 0x8, addend: 0x0, symName: __ZNSt3__116allocator_traitsINS_9allocatorIPNS_16__hash_node_baseIPNS_11__hash_nodeINS_17__hash_value_typeINS_12basic_stringIcNS_11char_traitsIcEENS1_IcEEEEbEEPvEEEEEEE8max_sizeB8ue170006ISG_vEEmRKSG_, symObjAddr: 0xE930, symBinAddr: 0x10000FC60, symSize: 0x20 }
  - { offsetInCU: 0x254B5, offset: 0x254B5, size: 0x8, addend: 0x0, symName: __ZNKSt3__19allocatorIPNS_16__hash_node_baseIPNS_11__hash_nodeINS_17__hash_value_typeINS_12basic_stringIcNS_11char_traitsIcEENS0_IcEEEEbEEPvEEEEE8max_sizeB8ue170006Ev, symObjAddr: 0xE950, symBinAddr: 0x10000FC80, symSize: 0x20 }
  - { offsetInCU: 0x254DB, offset: 0x254DB, size: 0x8, addend: 0x0, symName: __ZNSt3__117__compressed_pairImNS_9allocatorIPNS_16__hash_node_baseIPNS_11__hash_nodeINS_17__hash_value_typeINS_12basic_stringIcNS_11char_traitsIcEENS1_IcEEEEbEEPvEEEEEEE5firstB8ue170006Ev, symObjAddr: 0xE970, symBinAddr: 0x10000FCA0, symSize: 0x20 }
  - { offsetInCU: 0x25501, offset: 0x25501, size: 0x8, addend: 0x0, symName: __ZNSt3__122__compressed_pair_elemINS_16__hash_node_baseIPNS_11__hash_nodeINS_17__hash_value_typeINS_12basic_stringIcNS_11char_traitsIcEENS_9allocatorIcEEEEbEEPvEEEELi0ELb0EE5__getB8ue170006Ev, symObjAddr: 0xE9B0, symBinAddr: 0x10000FCE0, symSize: 0x10 }
  - { offsetInCU: 0x25527, offset: 0x25527, size: 0x8, addend: 0x0, symName: __ZNKSt3__117__compressed_pairIPNS_11__hash_nodeINS_17__hash_value_typeINS_12basic_stringIcNS_11char_traitsIcEENS_9allocatorIcEEEEbEEPvEENS_22__hash_node_destructorINS6_ISB_EEEEE5firstB8ue170006Ev, symObjAddr: 0xE9C0, symBinAddr: 0x10000FCF0, symSize: 0x20 }
  - { offsetInCU: 0x2554D, offset: 0x2554D, size: 0x8, addend: 0x0, symName: __ZNKSt3__122__compressed_pair_elemIPNS_11__hash_nodeINS_17__hash_value_typeINS_12basic_stringIcNS_11char_traitsIcEENS_9allocatorIcEEEEbEEPvEELi0ELb0EE5__getB8ue170006Ev, symObjAddr: 0xE9E0, symBinAddr: 0x10000FD10, symSize: 0x10 }
  - { offsetInCU: 0x25573, offset: 0x25573, size: 0x8, addend: 0x0, symName: __ZNSt3__117__compressed_pairIPNS_11__hash_nodeINS_17__hash_value_typeINS_12basic_stringIcNS_11char_traitsIcEENS_9allocatorIcEEEEbEEPvEENS_22__hash_node_destructorINS6_ISB_EEEEE5firstB8ue170006Ev, symObjAddr: 0xE9F0, symBinAddr: 0x10000FD20, symSize: 0x20 }
  - { offsetInCU: 0x25599, offset: 0x25599, size: 0x8, addend: 0x0, symName: __ZNSt3__122__compressed_pair_elemIPNS_11__hash_nodeINS_17__hash_value_typeINS_12basic_stringIcNS_11char_traitsIcEENS_9allocatorIcEEEEbEEPvEELi0ELb0EE5__getB8ue170006Ev, symObjAddr: 0xEA10, symBinAddr: 0x10000FD40, symSize: 0x10 }
  - { offsetInCU: 0x255BF, offset: 0x255BF, size: 0x8, addend: 0x0, symName: __ZNSt3__110unique_ptrINS_11__hash_nodeINS_17__hash_value_typeINS_12basic_stringIcNS_11char_traitsIcEENS_9allocatorIcEEEEbEEPvEENS_22__hash_node_destructorINS6_ISB_EEEEED2B8ue170006Ev, symObjAddr: 0xEA20, symBinAddr: 0x10000FD50, symSize: 0x20 }
  - { offsetInCU: 0x255E9, offset: 0x255E9, size: 0x8, addend: 0x0, symName: __ZNSt3__110unique_ptrINS_11__hash_nodeINS_17__hash_value_typeINS_12basic_stringIcNS_11char_traitsIcEENS_9allocatorIcEEEEbEEPvEENS_22__hash_node_destructorINS6_ISB_EEEEE5resetB8ue170006EPSB_, symObjAddr: 0xEA40, symBinAddr: 0x10000FD70, symSize: 0x70 }
  - { offsetInCU: 0x2562D, offset: 0x2562D, size: 0x8, addend: 0x0, symName: __ZNSt3__122__hash_node_destructorINS_9allocatorINS_11__hash_nodeINS_17__hash_value_typeINS_12basic_stringIcNS_11char_traitsIcEENS1_IcEEEEbEEPvEEEEEclB8ue170006EPSB_, symObjAddr: 0xEAB0, symBinAddr: 0x10000FDE0, symSize: 0x90 }
  - { offsetInCU: 0x25662, offset: 0x25662, size: 0x8, addend: 0x0, symName: __ZNSt3__116allocator_traitsINS_9allocatorINS_11__hash_nodeINS_17__hash_value_typeINS_12basic_stringIcNS_11char_traitsIcEENS1_IcEEEEbEEPvEEEEE7destroyB8ue170006INS_4pairIKS8_bEEvvEEvRSC_PT_, symObjAddr: 0xEB40, symBinAddr: 0x10000FE70, symSize: 0x20 }
  - { offsetInCU: 0x2569C, offset: 0x2569C, size: 0x8, addend: 0x0, symName: __ZNSt3__116allocator_traitsINS_9allocatorINS_11__hash_nodeINS_17__hash_value_typeINS_12basic_stringIcNS_11char_traitsIcEENS1_IcEEEEbEEPvEEEEE10deallocateB8ue170006ERSC_PSB_m, symObjAddr: 0xEB60, symBinAddr: 0x10000FE90, symSize: 0x30 }
  - { offsetInCU: 0x256DE, offset: 0x256DE, size: 0x8, addend: 0x0, symName: __ZNSt3__14pairIKNS_12basic_stringIcNS_11char_traitsIcEENS_9allocatorIcEEEEbED1Ev, symObjAddr: 0xEB90, symBinAddr: 0x10000FEC0, symSize: 0x20 }
  - { offsetInCU: 0x2570A, offset: 0x2570A, size: 0x8, addend: 0x0, symName: __ZNSt3__14pairIKNS_12basic_stringIcNS_11char_traitsIcEENS_9allocatorIcEEEEbED2Ev, symObjAddr: 0xEBB0, symBinAddr: 0x10000FEE0, symSize: 0x20 }
  - { offsetInCU: 0x25736, offset: 0x25736, size: 0x8, addend: 0x0, symName: __ZNSt3__19allocatorINS_11__hash_nodeINS_17__hash_value_typeINS_12basic_stringIcNS_11char_traitsIcEENS0_IcEEEEbEEPvEEE10deallocateB8ue170006EPSA_m, symObjAddr: 0xEBD0, symBinAddr: 0x10000FF00, symSize: 0x50 }
  - { offsetInCU: 0x25778, offset: 0x25778, size: 0x8, addend: 0x0, symName: __ZNSt3__115__hash_iteratorIPNS_11__hash_nodeINS_17__hash_value_typeINS_12basic_stringIcNS_11char_traitsIcEENS_9allocatorIcEEEEbEEPvEEEC2B8ue170006EPNS_16__hash_node_baseISC_EE, symObjAddr: 0xEC20, symBinAddr: 0x10000FF50, symSize: 0x20 }
  - { offsetInCU: 0x257B1, offset: 0x257B1, size: 0x8, addend: 0x0, symName: __ZNSt3__14pairINS_15__hash_iteratorIPNS_11__hash_nodeINS_17__hash_value_typeINS_12basic_stringIcNS_11char_traitsIcEENS_9allocatorIcEEEEbEEPvEEEEbEC2B8ue170006ISE_RbLSB_0EEEOT_OT0_, symObjAddr: 0xEC40, symBinAddr: 0x10000FF70, symSize: 0x30 }
  - { offsetInCU: 0x2580F, offset: 0x2580F, size: 0x8, addend: 0x0, symName: __ZNSt3__15tupleIJONS_12basic_stringIcNS_11char_traitsIcEENS_9allocatorIcEEEEEEC1B8ue170006IJS6_ELi0EEEDpOT_, symObjAddr: 0xEC70, symBinAddr: 0x10000FFA0, symSize: 0x30 }
  - { offsetInCU: 0x25859, offset: 0x25859, size: 0x8, addend: 0x0, symName: __ZNSt3__15tupleIJONS_12basic_stringIcNS_11char_traitsIcEENS_9allocatorIcEEEEEEC2B8ue170006IJS6_ELi0EEEDpOT_, symObjAddr: 0xECA0, symBinAddr: 0x10000FFD0, symSize: 0x30 }
  - { offsetInCU: 0x258A3, offset: 0x258A3, size: 0x8, addend: 0x0, symName: __ZNSt3__112__tuple_implINS_15__tuple_indicesIJLm0EEEEJONS_12basic_stringIcNS_11char_traitsIcEENS_9allocatorIcEEEEEEC1B8ue170006IJLm0EEJS9_EJEJEJS8_EEENS1_IJXspT_EEEENS_13__tuple_typesIJDpT0_EEENS1_IJXspT1_EEEENSD_IJDpT2_EEEDpOT3_, symObjAddr: 0xECD0, symBinAddr: 0x100010000, symSize: 0x30 }
  - { offsetInCU: 0x25934, offset: 0x25934, size: 0x8, addend: 0x0, symName: __ZNSt3__112__tuple_implINS_15__tuple_indicesIJLm0EEEEJONS_12basic_stringIcNS_11char_traitsIcEENS_9allocatorIcEEEEEEC2B8ue170006IJLm0EEJS9_EJEJEJS8_EEENS1_IJXspT_EEEENS_13__tuple_typesIJDpT0_EEENS1_IJXspT1_EEEENSD_IJDpT2_EEEDpOT3_, symObjAddr: 0xED00, symBinAddr: 0x100010030, symSize: 0x30 }
  - { offsetInCU: 0x259C5, offset: 0x259C5, size: 0x8, addend: 0x0, symName: __ZNSt3__112__tuple_leafILm0EONS_12basic_stringIcNS_11char_traitsIcEENS_9allocatorIcEEEELb0EEC2B8ue170006IS6_vEEOT_, symObjAddr: 0xED30, symBinAddr: 0x100010060, symSize: 0x20 }
  - { offsetInCU: 0x25A08, offset: 0x25A08, size: 0x8, addend: 0x0, symName: __ZNSt3__114pointer_traitsIPNS_17__hash_value_typeINS_12basic_stringIcNS_11char_traitsIcEENS_9allocatorIcEEEEbEEE10pointer_toB8ue170006ERS8_, symObjAddr: 0xED50, symBinAddr: 0x100010080, symSize: 0x10 }
  - { offsetInCU: 0x25A2B, offset: 0x25A2B, size: 0x8, addend: 0x0, symName: __ZNSt3__112__hash_tableINS_17__hash_value_typeINS_12basic_stringIcNS_11char_traitsIcEENS_9allocatorIcEEEEP4NodeEENS_22__unordered_map_hasherIS7_SA_NS_4hashIS7_EENS_8equal_toIS7_EELb1EEENS_21__unordered_map_equalIS7_SA_SF_SD_Lb1EEENS5_ISA_EEE5beginEv, symObjAddr: 0xED60, symBinAddr: 0x100010090, symSize: 0x30 }
  - { offsetInCU: 0x25A53, offset: 0x25A53, size: 0x8, addend: 0x0, symName: __ZNSt3__119__hash_map_iteratorINS_15__hash_iteratorIPNS_11__hash_nodeINS_17__hash_value_typeINS_12basic_stringIcNS_11char_traitsIcEENS_9allocatorIcEEEEP4NodeEEPvEEEEEC1B8ue170006ESG_, symObjAddr: 0xED90, symBinAddr: 0x1000100C0, symSize: 0x30 }
  - { offsetInCU: 0x25A8C, offset: 0x25A8C, size: 0x8, addend: 0x0, symName: __ZNSt3__117__compressed_pairINS_16__hash_node_baseIPNS_11__hash_nodeINS_17__hash_value_typeINS_12basic_stringIcNS_11char_traitsIcEENS_9allocatorIcEEEEP4NodeEEPvEEEENS7_ISE_EEE5firstB8ue170006Ev, symObjAddr: 0xEDC0, symBinAddr: 0x1000100F0, symSize: 0x20 }
  - { offsetInCU: 0x25AB2, offset: 0x25AB2, size: 0x8, addend: 0x0, symName: __ZNSt3__115__hash_iteratorIPNS_11__hash_nodeINS_17__hash_value_typeINS_12basic_stringIcNS_11char_traitsIcEENS_9allocatorIcEEEEP4NodeEEPvEEEC1B8ue170006EPNS_16__hash_node_baseISE_EE, symObjAddr: 0xEDE0, symBinAddr: 0x100010110, symSize: 0x30 }
  - { offsetInCU: 0x25AEB, offset: 0x25AEB, size: 0x8, addend: 0x0, symName: __ZNSt3__122__compressed_pair_elemINS_16__hash_node_baseIPNS_11__hash_nodeINS_17__hash_value_typeINS_12basic_stringIcNS_11char_traitsIcEENS_9allocatorIcEEEEP4NodeEEPvEEEELi0ELb0EE5__getB8ue170006Ev, symObjAddr: 0xEE10, symBinAddr: 0x100010140, symSize: 0x10 }
  - { offsetInCU: 0x25B11, offset: 0x25B11, size: 0x8, addend: 0x0, symName: __ZNSt3__115__hash_iteratorIPNS_11__hash_nodeINS_17__hash_value_typeINS_12basic_stringIcNS_11char_traitsIcEENS_9allocatorIcEEEEP4NodeEEPvEEEC2B8ue170006EPNS_16__hash_node_baseISE_EE, symObjAddr: 0xEE20, symBinAddr: 0x100010150, symSize: 0x20 }
  - { offsetInCU: 0x25B4A, offset: 0x25B4A, size: 0x8, addend: 0x0, symName: __ZNSt3__119__hash_map_iteratorINS_15__hash_iteratorIPNS_11__hash_nodeINS_17__hash_value_typeINS_12basic_stringIcNS_11char_traitsIcEENS_9allocatorIcEEEEP4NodeEEPvEEEEEC2B8ue170006ESG_, symObjAddr: 0xEE40, symBinAddr: 0x100010170, symSize: 0x20 }
  - { offsetInCU: 0x25B83, offset: 0x25B83, size: 0x8, addend: 0x0, symName: __ZNSt3__112__hash_tableINS_17__hash_value_typeINS_12basic_stringIcNS_11char_traitsIcEENS_9allocatorIcEEEEP4NodeEENS_22__unordered_map_hasherIS7_SA_NS_4hashIS7_EENS_8equal_toIS7_EELb1EEENS_21__unordered_map_equalIS7_SA_SF_SD_Lb1EEENS5_ISA_EEE3endEv, symObjAddr: 0xEE60, symBinAddr: 0x100010190, symSize: 0x30 }
  - { offsetInCU: 0x25BAB, offset: 0x25BAB, size: 0x8, addend: 0x0, symName: __ZNSt3__115__hash_iteratorIPNS_11__hash_nodeINS_17__hash_value_typeINS_12basic_stringIcNS_11char_traitsIcEENS_9allocatorIcEEEEP4NodeEEPvEEEppB8ue170006Ev, symObjAddr: 0xEEF0, symBinAddr: 0x100010220, symSize: 0x20 }
  - { offsetInCU: 0x25BD1, offset: 0x25BD1, size: 0x8, addend: 0x0, symName: __ZNSt3__114pointer_traitsIPNS_4pairIKNS_12basic_stringIcNS_11char_traitsIcEENS_9allocatorIcEEEEP4NodeEEE10pointer_toB8ue170006ERSB_, symObjAddr: 0xEF10, symBinAddr: 0x100010240, symSize: 0x10 }
  - { offsetInCU: 0x25BF4, offset: 0x25BF4, size: 0x8, addend: 0x0, symName: __ZNKSt3__115__hash_iteratorIPNS_11__hash_nodeINS_17__hash_value_typeINS_12basic_stringIcNS_11char_traitsIcEENS_9allocatorIcEEEEP4NodeEEPvEEEptB8ue170006Ev, symObjAddr: 0xEF20, symBinAddr: 0x100010250, symSize: 0x30 }
  - { offsetInCU: 0x25C1A, offset: 0x25C1A, size: 0x8, addend: 0x0, symName: __ZNSt3__117__hash_value_typeINS_12basic_stringIcNS_11char_traitsIcEENS_9allocatorIcEEEEP4NodeE11__get_valueB8ue170006Ev, symObjAddr: 0xEF50, symBinAddr: 0x100010280, symSize: 0x10 }
  - { offsetInCU: 0x25C40, offset: 0x25C40, size: 0x8, addend: 0x0, symName: __ZNSt3__114pointer_traitsIPNS_17__hash_value_typeINS_12basic_stringIcNS_11char_traitsIcEENS_9allocatorIcEEEEP4NodeEEE10pointer_toB8ue170006ERSA_, symObjAddr: 0xEF60, symBinAddr: 0x100010290, symSize: 0x10 }
  - { offsetInCU: 0x25C63, offset: 0x25C63, size: 0x8, addend: 0x0, symName: __ZNSt3__116__hash_node_baseIPNS_11__hash_nodeINS_17__hash_value_typeINS_12basic_stringIcNS_11char_traitsIcEENS_9allocatorIcEEEEP4NodeEEPvEEE8__upcastB8ue170006Ev, symObjAddr: 0xEF70, symBinAddr: 0x1000102A0, symSize: 0x20 }
  - { offsetInCU: 0x25C89, offset: 0x25C89, size: 0x8, addend: 0x0, symName: __ZNSt3__114pointer_traitsIPNS_16__hash_node_baseIPNS_11__hash_nodeINS_17__hash_value_typeINS_12basic_stringIcNS_11char_traitsIcEENS_9allocatorIcEEEEP4NodeEEPvEEEEE10pointer_toB8ue170006ERSG_, symObjAddr: 0xEF90, symBinAddr: 0x1000102C0, symSize: 0x10 }
  - { offsetInCU: 0x25CAC, offset: 0x25CAC, size: 0x8, addend: 0x0, symName: __ZNSt3__112__hash_tableINS_17__hash_value_typeINS_12basic_stringIcNS_11char_traitsIcEENS_9allocatorIcEEEENS_6vectorI8typeEnumNS5_IS9_EEEEEENS_22__unordered_map_hasherIS7_SC_NS_4hashIS7_EENS_8equal_toIS7_EELb1EEENS_21__unordered_map_equalIS7_SC_SH_SF_Lb1EEENS5_ISC_EEE25__emplace_unique_key_argsIS7_JRKNS_21piecewise_construct_tENS_5tupleIJOS7_EEENSR_IJEEEEEENS_4pairINS_15__hash_iteratorIPNS_11__hash_nodeISC_PvEEEEbEERKT_DpOT0_, symObjAddr: 0xEFA0, symBinAddr: 0x1000102D0, symSize: 0x610 }
  - { offsetInCU: 0x25DB5, offset: 0x25DB5, size: 0x8, addend: 0x0, symName: __ZNKSt3__115__hash_iteratorIPNS_11__hash_nodeINS_17__hash_value_typeINS_12basic_stringIcNS_11char_traitsIcEENS_9allocatorIcEEEENS_6vectorI8typeEnumNS6_ISA_EEEEEEPvEEEptB8ue170006Ev, symObjAddr: 0xF5B0, symBinAddr: 0x1000108E0, symSize: 0x30 }
  - { offsetInCU: 0x25DDB, offset: 0x25DDB, size: 0x8, addend: 0x0, symName: __ZNSt3__117__hash_value_typeINS_12basic_stringIcNS_11char_traitsIcEENS_9allocatorIcEEEENS_6vectorI8typeEnumNS4_IS8_EEEEE11__get_valueB8ue170006Ev, symObjAddr: 0xF5E0, symBinAddr: 0x100010910, symSize: 0x10 }
  - { offsetInCU: 0x25E01, offset: 0x25E01, size: 0x8, addend: 0x0, symName: __ZNSt3__112__hash_tableINS_17__hash_value_typeINS_12basic_stringIcNS_11char_traitsIcEENS_9allocatorIcEEEENS_6vectorI8typeEnumNS5_IS9_EEEEEENS_22__unordered_map_hasherIS7_SC_NS_4hashIS7_EENS_8equal_toIS7_EELb1EEENS_21__unordered_map_equalIS7_SC_SH_SF_Lb1EEENS5_ISC_EEE13hash_functionB8ue170006Ev, symObjAddr: 0xF5F0, symBinAddr: 0x100010920, symSize: 0x20 }
  - { offsetInCU: 0x25E27, offset: 0x25E27, size: 0x8, addend: 0x0, symName: __ZNKSt3__122__unordered_map_hasherINS_12basic_stringIcNS_11char_traitsIcEENS_9allocatorIcEEEENS_17__hash_value_typeIS6_NS_6vectorI8typeEnumNS4_IS9_EEEEEENS_4hashIS6_EENS_8equal_toIS6_EELb1EEclB8ue170006ERKS6_, symObjAddr: 0xF610, symBinAddr: 0x100010940, symSize: 0x30 }
  - { offsetInCU: 0x25E5C, offset: 0x25E5C, size: 0x8, addend: 0x0, symName: __ZNKSt3__112__hash_tableINS_17__hash_value_typeINS_12basic_stringIcNS_11char_traitsIcEENS_9allocatorIcEEEENS_6vectorI8typeEnumNS5_IS9_EEEEEENS_22__unordered_map_hasherIS7_SC_NS_4hashIS7_EENS_8equal_toIS7_EELb1EEENS_21__unordered_map_equalIS7_SC_SH_SF_Lb1EEENS5_ISC_EEE12bucket_countB8ue170006Ev, symObjAddr: 0xF640, symBinAddr: 0x100010970, symSize: 0x30 }
  - { offsetInCU: 0x25E82, offset: 0x25E82, size: 0x8, addend: 0x0, symName: __ZNKSt3__110unique_ptrIA_PNS_16__hash_node_baseIPNS_11__hash_nodeINS_17__hash_value_typeINS_12basic_stringIcNS_11char_traitsIcEENS_9allocatorIcEEEENS_6vectorI8typeEnumNS7_ISB_EEEEEEPvEEEENS_25__bucket_list_deallocatorINS7_ISJ_EEEEEixB8ue170006Em, symObjAddr: 0xF670, symBinAddr: 0x1000109A0, symSize: 0x30 }
  - { offsetInCU: 0x25EB7, offset: 0x25EB7, size: 0x8, addend: 0x0, symName: __ZNKSt3__116__hash_node_baseIPNS_11__hash_nodeINS_17__hash_value_typeINS_12basic_stringIcNS_11char_traitsIcEENS_9allocatorIcEEEENS_6vectorI8typeEnumNS6_ISA_EEEEEEPvEEE6__hashB8ue170006Ev, symObjAddr: 0xF6A0, symBinAddr: 0x1000109D0, symSize: 0x20 }
  - { offsetInCU: 0x25EDD, offset: 0x25EDD, size: 0x8, addend: 0x0, symName: __ZNSt3__112__hash_tableINS_17__hash_value_typeINS_12basic_stringIcNS_11char_traitsIcEENS_9allocatorIcEEEENS_6vectorI8typeEnumNS5_IS9_EEEEEENS_22__unordered_map_hasherIS7_SC_NS_4hashIS7_EENS_8equal_toIS7_EELb1EEENS_21__unordered_map_equalIS7_SC_SH_SF_Lb1EEENS5_ISC_EEE6key_eqB8ue170006Ev, symObjAddr: 0xF6C0, symBinAddr: 0x1000109F0, symSize: 0x20 }
  - { offsetInCU: 0x25F03, offset: 0x25F03, size: 0x8, addend: 0x0, symName: __ZNKSt3__121__unordered_map_equalINS_12basic_stringIcNS_11char_traitsIcEENS_9allocatorIcEEEENS_17__hash_value_typeIS6_NS_6vectorI8typeEnumNS4_IS9_EEEEEENS_8equal_toIS6_EENS_4hashIS6_EELb1EEclB8ue170006ERKSC_RKS6_, symObjAddr: 0xF6E0, symBinAddr: 0x100010A10, symSize: 0x40 }
  - { offsetInCU: 0x25F47, offset: 0x25F47, size: 0x8, addend: 0x0, symName: __ZNSt3__116__hash_node_baseIPNS_11__hash_nodeINS_17__hash_value_typeINS_12basic_stringIcNS_11char_traitsIcEENS_9allocatorIcEEEENS_6vectorI8typeEnumNS6_ISA_EEEEEEPvEEE8__upcastB8ue170006Ev, symObjAddr: 0xF720, symBinAddr: 0x100010A50, symSize: 0x20 }
  - { offsetInCU: 0x25F6D, offset: 0x25F6D, size: 0x8, addend: 0x0, symName: __ZNSt3__112__hash_tableINS_17__hash_value_typeINS_12basic_stringIcNS_11char_traitsIcEENS_9allocatorIcEEEENS_6vectorI8typeEnumNS5_IS9_EEEEEENS_22__unordered_map_hasherIS7_SC_NS_4hashIS7_EENS_8equal_toIS7_EELb1EEENS_21__unordered_map_equalIS7_SC_SH_SF_Lb1EEENS5_ISC_EEE21__construct_node_hashIRKNS_21piecewise_construct_tEJNS_5tupleIJOS7_EEENSR_IJEEEEEENS_10unique_ptrINS_11__hash_nodeISC_PvEENS_22__hash_node_destructorINS5_ISY_EEEEEEmOT_DpOT0_, symObjAddr: 0xF740, symBinAddr: 0x100010A70, symSize: 0x150 }
  - { offsetInCU: 0x26009, offset: 0x26009, size: 0x8, addend: 0x0, symName: __ZNSt3__112__hash_tableINS_17__hash_value_typeINS_12basic_stringIcNS_11char_traitsIcEENS_9allocatorIcEEEENS_6vectorI8typeEnumNS5_IS9_EEEEEENS_22__unordered_map_hasherIS7_SC_NS_4hashIS7_EENS_8equal_toIS7_EELb1EEENS_21__unordered_map_equalIS7_SC_SH_SF_Lb1EEENS5_ISC_EEE4sizeB8ue170006Ev, symObjAddr: 0xF890, symBinAddr: 0x100010BC0, symSize: 0x20 }
  - { offsetInCU: 0x2602F, offset: 0x2602F, size: 0x8, addend: 0x0, symName: __ZNSt3__112__hash_tableINS_17__hash_value_typeINS_12basic_stringIcNS_11char_traitsIcEENS_9allocatorIcEEEENS_6vectorI8typeEnumNS5_IS9_EEEEEENS_22__unordered_map_hasherIS7_SC_NS_4hashIS7_EENS_8equal_toIS7_EELb1EEENS_21__unordered_map_equalIS7_SC_SH_SF_Lb1EEENS5_ISC_EEE15max_load_factorB8ue170006Ev, symObjAddr: 0xF8B0, symBinAddr: 0x100010BE0, symSize: 0x20 }
  - { offsetInCU: 0x26055, offset: 0x26055, size: 0x8, addend: 0x0, symName: __ZNSt3__112__hash_tableINS_17__hash_value_typeINS_12basic_stringIcNS_11char_traitsIcEENS_9allocatorIcEEEENS_6vectorI8typeEnumNS5_IS9_EEEEEENS_22__unordered_map_hasherIS7_SC_NS_4hashIS7_EENS_8equal_toIS7_EELb1EEENS_21__unordered_map_equalIS7_SC_SH_SF_Lb1EEENS5_ISC_EEE15__rehash_uniqueB8ue170006Em, symObjAddr: 0xF8D0, symBinAddr: 0x100010C00, symSize: 0x30 }
  - { offsetInCU: 0x2608A, offset: 0x2608A, size: 0x8, addend: 0x0, symName: __ZNSt3__117__compressed_pairINS_16__hash_node_baseIPNS_11__hash_nodeINS_17__hash_value_typeINS_12basic_stringIcNS_11char_traitsIcEENS_9allocatorIcEEEENS_6vectorI8typeEnumNS7_ISB_EEEEEEPvEEEENS7_ISG_EEE5firstB8ue170006Ev, symObjAddr: 0xF900, symBinAddr: 0x100010C30, symSize: 0x20 }
  - { offsetInCU: 0x260B0, offset: 0x260B0, size: 0x8, addend: 0x0, symName: __ZNSt3__116__hash_node_baseIPNS_11__hash_nodeINS_17__hash_value_typeINS_12basic_stringIcNS_11char_traitsIcEENS_9allocatorIcEEEENS_6vectorI8typeEnumNS6_ISA_EEEEEEPvEEE5__ptrB8ue170006Ev, symObjAddr: 0xF920, symBinAddr: 0x100010C50, symSize: 0x20 }
  - { offsetInCU: 0x260D6, offset: 0x260D6, size: 0x8, addend: 0x0, symName: __ZNKSt3__110unique_ptrINS_11__hash_nodeINS_17__hash_value_typeINS_12basic_stringIcNS_11char_traitsIcEENS_9allocatorIcEEEENS_6vectorI8typeEnumNS6_ISA_EEEEEEPvEENS_22__hash_node_destructorINS6_ISF_EEEEEptB8ue170006Ev, symObjAddr: 0xF940, symBinAddr: 0x100010C70, symSize: 0x20 }
  - { offsetInCU: 0x260FC, offset: 0x260FC, size: 0x8, addend: 0x0, symName: __ZNKSt3__110unique_ptrINS_11__hash_nodeINS_17__hash_value_typeINS_12basic_stringIcNS_11char_traitsIcEENS_9allocatorIcEEEENS_6vectorI8typeEnumNS6_ISA_EEEEEEPvEENS_22__hash_node_destructorINS6_ISF_EEEEE3getB8ue170006Ev, symObjAddr: 0xF960, symBinAddr: 0x100010C90, symSize: 0x20 }
  - { offsetInCU: 0x26122, offset: 0x26122, size: 0x8, addend: 0x0, symName: __ZNSt3__110unique_ptrINS_11__hash_nodeINS_17__hash_value_typeINS_12basic_stringIcNS_11char_traitsIcEENS_9allocatorIcEEEENS_6vectorI8typeEnumNS6_ISA_EEEEEEPvEENS_22__hash_node_destructorINS6_ISF_EEEEE7releaseB8ue170006Ev, symObjAddr: 0xF980, symBinAddr: 0x100010CB0, symSize: 0x40 }
  - { offsetInCU: 0x26157, offset: 0x26157, size: 0x8, addend: 0x0, symName: __ZNSt3__110unique_ptrINS_11__hash_nodeINS_17__hash_value_typeINS_12basic_stringIcNS_11char_traitsIcEENS_9allocatorIcEEEENS_6vectorI8typeEnumNS6_ISA_EEEEEEPvEENS_22__hash_node_destructorINS6_ISF_EEEEED1B8ue170006Ev, symObjAddr: 0xF9C0, symBinAddr: 0x100010CF0, symSize: 0x20 }
  - { offsetInCU: 0x26181, offset: 0x26181, size: 0x8, addend: 0x0, symName: __ZNSt3__115__hash_iteratorIPNS_11__hash_nodeINS_17__hash_value_typeINS_12basic_stringIcNS_11char_traitsIcEENS_9allocatorIcEEEENS_6vectorI8typeEnumNS6_ISA_EEEEEEPvEEEC1B8ue170006EPNS_16__hash_node_baseISG_EE, symObjAddr: 0xF9E0, symBinAddr: 0x100010D10, symSize: 0x30 }
  - { offsetInCU: 0x261BF, offset: 0x261BF, size: 0x8, addend: 0x0, symName: __ZNSt3__14pairINS_15__hash_iteratorIPNS_11__hash_nodeINS_17__hash_value_typeINS_12basic_stringIcNS_11char_traitsIcEENS_9allocatorIcEEEENS_6vectorI8typeEnumNS7_ISB_EEEEEEPvEEEEbEC1B8ue170006ISI_RbLSF_0EEEOT_OT0_, symObjAddr: 0xFA10, symBinAddr: 0x100010D40, symSize: 0x30 }
  - { offsetInCU: 0x2621D, offset: 0x2621D, size: 0x8, addend: 0x0, symName: __ZNSt3__117__compressed_pairImNS_22__unordered_map_hasherINS_12basic_stringIcNS_11char_traitsIcEENS_9allocatorIcEEEENS_17__hash_value_typeIS7_NS_6vectorI8typeEnumNS5_ISA_EEEEEENS_4hashIS7_EENS_8equal_toIS7_EELb1EEEE6secondB8ue170006Ev, symObjAddr: 0xFA40, symBinAddr: 0x100010D70, symSize: 0x20 }
  - { offsetInCU: 0x26243, offset: 0x26243, size: 0x8, addend: 0x0, symName: __ZNSt3__122__compressed_pair_elemINS_22__unordered_map_hasherINS_12basic_stringIcNS_11char_traitsIcEENS_9allocatorIcEEEENS_17__hash_value_typeIS7_NS_6vectorI8typeEnumNS5_ISA_EEEEEENS_4hashIS7_EENS_8equal_toIS7_EELb1EEELi1ELb1EE5__getB8ue170006Ev, symObjAddr: 0xFA60, symBinAddr: 0x100010D90, symSize: 0x10 }
  - { offsetInCU: 0x26269, offset: 0x26269, size: 0x8, addend: 0x0, symName: __ZNKSt3__110unique_ptrIA_PNS_16__hash_node_baseIPNS_11__hash_nodeINS_17__hash_value_typeINS_12basic_stringIcNS_11char_traitsIcEENS_9allocatorIcEEEENS_6vectorI8typeEnumNS7_ISB_EEEEEEPvEEEENS_25__bucket_list_deallocatorINS7_ISJ_EEEEE11get_deleterB8ue170006Ev, symObjAddr: 0xFA70, symBinAddr: 0x100010DA0, symSize: 0x20 }
  - { offsetInCU: 0x2628F, offset: 0x2628F, size: 0x8, addend: 0x0, symName: __ZNKSt3__125__bucket_list_deallocatorINS_9allocatorIPNS_16__hash_node_baseIPNS_11__hash_nodeINS_17__hash_value_typeINS_12basic_stringIcNS_11char_traitsIcEENS1_IcEEEENS_6vectorI8typeEnumNS1_ISB_EEEEEEPvEEEEEEE4sizeB8ue170006Ev, symObjAddr: 0xFA90, symBinAddr: 0x100010DC0, symSize: 0x20 }
  - { offsetInCU: 0x262B5, offset: 0x262B5, size: 0x8, addend: 0x0, symName: __ZNKSt3__117__compressed_pairIPPNS_16__hash_node_baseIPNS_11__hash_nodeINS_17__hash_value_typeINS_12basic_stringIcNS_11char_traitsIcEENS_9allocatorIcEEEENS_6vectorI8typeEnumNS7_ISB_EEEEEEPvEEEENS_25__bucket_list_deallocatorINS7_ISJ_EEEEE6secondB8ue170006Ev, symObjAddr: 0xFAB0, symBinAddr: 0x100010DE0, symSize: 0x20 }
  - { offsetInCU: 0x262DB, offset: 0x262DB, size: 0x8, addend: 0x0, symName: __ZNKSt3__122__compressed_pair_elemINS_25__bucket_list_deallocatorINS_9allocatorIPNS_16__hash_node_baseIPNS_11__hash_nodeINS_17__hash_value_typeINS_12basic_stringIcNS_11char_traitsIcEENS2_IcEEEENS_6vectorI8typeEnumNS2_ISC_EEEEEEPvEEEEEEEELi1ELb0EE5__getB8ue170006Ev, symObjAddr: 0xFAD0, symBinAddr: 0x100010E00, symSize: 0x10 }
  - { offsetInCU: 0x26301, offset: 0x26301, size: 0x8, addend: 0x0, symName: __ZNKSt3__117__compressed_pairImNS_9allocatorIPNS_16__hash_node_baseIPNS_11__hash_nodeINS_17__hash_value_typeINS_12basic_stringIcNS_11char_traitsIcEENS1_IcEEEENS_6vectorI8typeEnumNS1_ISB_EEEEEEPvEEEEEEE5firstB8ue170006Ev, symObjAddr: 0xFAE0, symBinAddr: 0x100010E10, symSize: 0x20 }
  - { offsetInCU: 0x26327, offset: 0x26327, size: 0x8, addend: 0x0, symName: __ZNKSt3__117__compressed_pairIPPNS_16__hash_node_baseIPNS_11__hash_nodeINS_17__hash_value_typeINS_12basic_stringIcNS_11char_traitsIcEENS_9allocatorIcEEEENS_6vectorI8typeEnumNS7_ISB_EEEEEEPvEEEENS_25__bucket_list_deallocatorINS7_ISJ_EEEEE5firstB8ue170006Ev, symObjAddr: 0xFB00, symBinAddr: 0x100010E30, symSize: 0x20 }
  - { offsetInCU: 0x2634D, offset: 0x2634D, size: 0x8, addend: 0x0, symName: __ZNKSt3__122__compressed_pair_elemIPPNS_16__hash_node_baseIPNS_11__hash_nodeINS_17__hash_value_typeINS_12basic_stringIcNS_11char_traitsIcEENS_9allocatorIcEEEENS_6vectorI8typeEnumNS7_ISB_EEEEEEPvEEEELi0ELb0EE5__getB8ue170006Ev, symObjAddr: 0xFB20, symBinAddr: 0x100010E50, symSize: 0x10 }
  - { offsetInCU: 0x26373, offset: 0x26373, size: 0x8, addend: 0x0, symName: __ZNSt3__117__compressed_pairIfNS_21__unordered_map_equalINS_12basic_stringIcNS_11char_traitsIcEENS_9allocatorIcEEEENS_17__hash_value_typeIS7_NS_6vectorI8typeEnumNS5_ISA_EEEEEENS_8equal_toIS7_EENS_4hashIS7_EELb1EEEE6secondB8ue170006Ev, symObjAddr: 0xFB30, symBinAddr: 0x100010E60, symSize: 0x20 }
  - { offsetInCU: 0x26399, offset: 0x26399, size: 0x8, addend: 0x0, symName: __ZNSt3__122__compressed_pair_elemINS_21__unordered_map_equalINS_12basic_stringIcNS_11char_traitsIcEENS_9allocatorIcEEEENS_17__hash_value_typeIS7_NS_6vectorI8typeEnumNS5_ISA_EEEEEENS_8equal_toIS7_EENS_4hashIS7_EELb1EEELi1ELb1EE5__getB8ue170006Ev, symObjAddr: 0xFB50, symBinAddr: 0x100010E80, symSize: 0x10 }
  - { offsetInCU: 0x263BF, offset: 0x263BF, size: 0x8, addend: 0x0, symName: __ZNKSt3__117__hash_value_typeINS_12basic_stringIcNS_11char_traitsIcEENS_9allocatorIcEEEENS_6vectorI8typeEnumNS4_IS8_EEEEE11__get_valueB8ue170006Ev, symObjAddr: 0xFB60, symBinAddr: 0x100010E90, symSize: 0x10 }
  - { offsetInCU: 0x263E5, offset: 0x263E5, size: 0x8, addend: 0x0, symName: __ZNSt3__114pointer_traitsIPNS_16__hash_node_baseIPNS_11__hash_nodeINS_17__hash_value_typeINS_12basic_stringIcNS_11char_traitsIcEENS_9allocatorIcEEEENS_6vectorI8typeEnumNS7_ISB_EEEEEEPvEEEEE10pointer_toB8ue170006ERSI_, symObjAddr: 0xFB70, symBinAddr: 0x100010EA0, symSize: 0x10 }
  - { offsetInCU: 0x26408, offset: 0x26408, size: 0x8, addend: 0x0, symName: __ZNSt3__112__hash_tableINS_17__hash_value_typeINS_12basic_stringIcNS_11char_traitsIcEENS_9allocatorIcEEEENS_6vectorI8typeEnumNS5_IS9_EEEEEENS_22__unordered_map_hasherIS7_SC_NS_4hashIS7_EENS_8equal_toIS7_EELb1EEENS_21__unordered_map_equalIS7_SC_SH_SF_Lb1EEENS5_ISC_EEE12__node_allocB8ue170006Ev, symObjAddr: 0xFB80, symBinAddr: 0x100010EB0, symSize: 0x20 }
  - { offsetInCU: 0x2642E, offset: 0x2642E, size: 0x8, addend: 0x0, symName: __ZNSt3__116allocator_traitsINS_9allocatorINS_11__hash_nodeINS_17__hash_value_typeINS_12basic_stringIcNS_11char_traitsIcEENS1_IcEEEENS_6vectorI8typeEnumNS1_ISA_EEEEEEPvEEEEE8allocateB8ue170006ERSG_m, symObjAddr: 0xFBA0, symBinAddr: 0x100010ED0, symSize: 0x30 }
  - { offsetInCU: 0x26461, offset: 0x26461, size: 0x8, addend: 0x0, symName: __ZNSt3__122__hash_node_destructorINS_9allocatorINS_11__hash_nodeINS_17__hash_value_typeINS_12basic_stringIcNS_11char_traitsIcEENS1_IcEEEENS_6vectorI8typeEnumNS1_ISA_EEEEEEPvEEEEEC1B8ue170006ERSG_b, symObjAddr: 0xFBD0, symBinAddr: 0x100010F00, symSize: 0x40 }
  - { offsetInCU: 0x264AE, offset: 0x264AE, size: 0x8, addend: 0x0, symName: __ZNSt3__110unique_ptrINS_11__hash_nodeINS_17__hash_value_typeINS_12basic_stringIcNS_11char_traitsIcEENS_9allocatorIcEEEENS_6vectorI8typeEnumNS6_ISA_EEEEEEPvEENS_22__hash_node_destructorINS6_ISF_EEEEEC1B8ue170006ILb1EvEEPSF_NS_16__dependent_typeINS_27__unique_ptr_deleter_sfinaeISI_EEXT_EE20__good_rval_ref_typeE, symObjAddr: 0xFC10, symBinAddr: 0x100010F40, symSize: 0x30 }
  - { offsetInCU: 0x264FF, offset: 0x264FF, size: 0x8, addend: 0x0, symName: __ZNSt3__116allocator_traitsINS_9allocatorINS_11__hash_nodeINS_17__hash_value_typeINS_12basic_stringIcNS_11char_traitsIcEENS1_IcEEEENS_6vectorI8typeEnumNS1_ISA_EEEEEEPvEEEEE9constructB8ue170006INS_4pairIKS8_SC_EEJRKNS_21piecewise_construct_tENS_5tupleIJOS8_EEENSP_IJEEEEvEEvRSG_PT_DpOT0_, symObjAddr: 0xFC40, symBinAddr: 0x100010F70, symSize: 0x40 }
  - { offsetInCU: 0x2657E, offset: 0x2657E, size: 0x8, addend: 0x0, symName: __ZNSt3__122__hash_key_value_typesINS_17__hash_value_typeINS_12basic_stringIcNS_11char_traitsIcEENS_9allocatorIcEEEENS_6vectorI8typeEnumNS5_IS9_EEEEEEE9__get_ptrB8ue170006ERSC_, symObjAddr: 0xFC80, symBinAddr: 0x100010FB0, symSize: 0x20 }
  - { offsetInCU: 0x265A1, offset: 0x265A1, size: 0x8, addend: 0x0, symName: __ZNSt3__110unique_ptrINS_11__hash_nodeINS_17__hash_value_typeINS_12basic_stringIcNS_11char_traitsIcEENS_9allocatorIcEEEENS_6vectorI8typeEnumNS6_ISA_EEEEEEPvEENS_22__hash_node_destructorINS6_ISF_EEEEE11get_deleterB8ue170006Ev, symObjAddr: 0xFCA0, symBinAddr: 0x100010FD0, symSize: 0x20 }
  - { offsetInCU: 0x265C7, offset: 0x265C7, size: 0x8, addend: 0x0, symName: __ZNSt3__117__compressed_pairINS_16__hash_node_baseIPNS_11__hash_nodeINS_17__hash_value_typeINS_12basic_stringIcNS_11char_traitsIcEENS_9allocatorIcEEEENS_6vectorI8typeEnumNS7_ISB_EEEEEEPvEEEENS7_ISG_EEE6secondB8ue170006Ev, symObjAddr: 0xFCC0, symBinAddr: 0x100010FF0, symSize: 0x20 }
  - { offsetInCU: 0x265ED, offset: 0x265ED, size: 0x8, addend: 0x0, symName: __ZNSt3__122__compressed_pair_elemINS_9allocatorINS_11__hash_nodeINS_17__hash_value_typeINS_12basic_stringIcNS_11char_traitsIcEENS1_IcEEEENS_6vectorI8typeEnumNS1_ISA_EEEEEEPvEEEELi1ELb1EE5__getB8ue170006Ev, symObjAddr: 0xFCE0, symBinAddr: 0x100011010, symSize: 0x10 }
  - { offsetInCU: 0x26613, offset: 0x26613, size: 0x8, addend: 0x0, symName: __ZNSt3__19allocatorINS_11__hash_nodeINS_17__hash_value_typeINS_12basic_stringIcNS_11char_traitsIcEENS0_IcEEEENS_6vectorI8typeEnumNS0_IS9_EEEEEEPvEEE8allocateB8ue170006Em, symObjAddr: 0xFCF0, symBinAddr: 0x100011020, symSize: 0x50 }
  - { offsetInCU: 0x26651, offset: 0x26651, size: 0x8, addend: 0x0, symName: __ZNSt3__116allocator_traitsINS_9allocatorINS_11__hash_nodeINS_17__hash_value_typeINS_12basic_stringIcNS_11char_traitsIcEENS1_IcEEEENS_6vectorI8typeEnumNS1_ISA_EEEEEEPvEEEEE8max_sizeB8ue170006ISG_vEEmRKSG_, symObjAddr: 0xFD40, symBinAddr: 0x100011070, symSize: 0x20 }
  - { offsetInCU: 0x2667F, offset: 0x2667F, size: 0x8, addend: 0x0, symName: __ZNKSt3__19allocatorINS_11__hash_nodeINS_17__hash_value_typeINS_12basic_stringIcNS_11char_traitsIcEENS0_IcEEEENS_6vectorI8typeEnumNS0_IS9_EEEEEEPvEEE8max_sizeB8ue170006Ev, symObjAddr: 0xFD60, symBinAddr: 0x100011090, symSize: 0x20 }
  - { offsetInCU: 0x266A5, offset: 0x266A5, size: 0x8, addend: 0x0, symName: __ZNSt3__122__hash_node_destructorINS_9allocatorINS_11__hash_nodeINS_17__hash_value_typeINS_12basic_stringIcNS_11char_traitsIcEENS1_IcEEEENS_6vectorI8typeEnumNS1_ISA_EEEEEEPvEEEEEC2B8ue170006ERSG_b, symObjAddr: 0xFD80, symBinAddr: 0x1000110B0, symSize: 0x30 }
  - { offsetInCU: 0x266ED, offset: 0x266ED, size: 0x8, addend: 0x0, symName: __ZNSt3__110unique_ptrINS_11__hash_nodeINS_17__hash_value_typeINS_12basic_stringIcNS_11char_traitsIcEENS_9allocatorIcEEEENS_6vectorI8typeEnumNS6_ISA_EEEEEEPvEENS_22__hash_node_destructorINS6_ISF_EEEEEC2B8ue170006ILb1EvEEPSF_NS_16__dependent_typeINS_27__unique_ptr_deleter_sfinaeISI_EEXT_EE20__good_rval_ref_typeE, symObjAddr: 0xFDB0, symBinAddr: 0x1000110E0, symSize: 0x40 }
  - { offsetInCU: 0x2673E, offset: 0x2673E, size: 0x8, addend: 0x0, symName: __ZNSt3__117__compressed_pairIPNS_11__hash_nodeINS_17__hash_value_typeINS_12basic_stringIcNS_11char_traitsIcEENS_9allocatorIcEEEENS_6vectorI8typeEnumNS6_ISA_EEEEEEPvEENS_22__hash_node_destructorINS6_ISF_EEEEEC1B8ue170006IRSG_SJ_EEOT_OT0_, symObjAddr: 0xFDF0, symBinAddr: 0x100011120, symSize: 0x30 }
  - { offsetInCU: 0x26796, offset: 0x26796, size: 0x8, addend: 0x0, symName: __ZNSt3__117__compressed_pairIPNS_11__hash_nodeINS_17__hash_value_typeINS_12basic_stringIcNS_11char_traitsIcEENS_9allocatorIcEEEENS_6vectorI8typeEnumNS6_ISA_EEEEEEPvEENS_22__hash_node_destructorINS6_ISF_EEEEEC2B8ue170006IRSG_SJ_EEOT_OT0_, symObjAddr: 0xFE20, symBinAddr: 0x100011150, symSize: 0x40 }
  - { offsetInCU: 0x267EE, offset: 0x267EE, size: 0x8, addend: 0x0, symName: __ZNSt3__122__compressed_pair_elemIPNS_11__hash_nodeINS_17__hash_value_typeINS_12basic_stringIcNS_11char_traitsIcEENS_9allocatorIcEEEENS_6vectorI8typeEnumNS6_ISA_EEEEEEPvEELi0ELb0EEC2B8ue170006IRSG_vEEOT_, symObjAddr: 0xFE60, symBinAddr: 0x100011190, symSize: 0x20 }
  - { offsetInCU: 0x26830, offset: 0x26830, size: 0x8, addend: 0x0, symName: __ZNSt3__122__compressed_pair_elemINS_22__hash_node_destructorINS_9allocatorINS_11__hash_nodeINS_17__hash_value_typeINS_12basic_stringIcNS_11char_traitsIcEENS2_IcEEEENS_6vectorI8typeEnumNS2_ISB_EEEEEEPvEEEEEELi1ELb0EEC2B8ue170006ISI_vEEOT_, symObjAddr: 0xFE80, symBinAddr: 0x1000111B0, symSize: 0x30 }
  - { offsetInCU: 0x26872, offset: 0x26872, size: 0x8, addend: 0x0, symName: __ZNSt3__19allocatorINS_11__hash_nodeINS_17__hash_value_typeINS_12basic_stringIcNS_11char_traitsIcEENS0_IcEEEENS_6vectorI8typeEnumNS0_IS9_EEEEEEPvEEE9constructB8ue170006INS_4pairIKS7_SB_EEJRKNS_21piecewise_construct_tENS_5tupleIJOS7_EEENSN_IJEEEEEEvPT_DpOT0_, symObjAddr: 0xFEB0, symBinAddr: 0x1000111E0, symSize: 0x40 }
  - { offsetInCU: 0x268EE, offset: 0x268EE, size: 0x8, addend: 0x0, symName: __ZNSt3__14pairIKNS_12basic_stringIcNS_11char_traitsIcEENS_9allocatorIcEEEENS_6vectorI8typeEnumNS4_IS9_EEEEEC1B8ue170006IJOS6_EJEEENS_21piecewise_construct_tENS_5tupleIJDpT_EEENSG_IJDpT0_EEE, symObjAddr: 0xFEF0, symBinAddr: 0x100011220, symSize: 0x40 }
  - { offsetInCU: 0x26955, offset: 0x26955, size: 0x8, addend: 0x0, symName: __ZNSt3__14pairIKNS_12basic_stringIcNS_11char_traitsIcEENS_9allocatorIcEEEENS_6vectorI8typeEnumNS4_IS9_EEEEEC1B8ue170006IJOS6_EJEJLm0EEJEEENS_21piecewise_construct_tERNS_5tupleIJDpT_EEERNSG_IJDpT0_EEENS_15__tuple_indicesIJXspT1_EEEENSP_IJXspT2_EEEE, symObjAddr: 0xFF30, symBinAddr: 0x100011260, symSize: 0x30 }
  - { offsetInCU: 0x269E2, offset: 0x269E2, size: 0x8, addend: 0x0, symName: __ZNSt3__14pairIKNS_12basic_stringIcNS_11char_traitsIcEENS_9allocatorIcEEEENS_6vectorI8typeEnumNS4_IS9_EEEEEC2B8ue170006IJOS6_EJEJLm0EEJEEENS_21piecewise_construct_tERNS_5tupleIJDpT_EEERNSG_IJDpT0_EEENS_15__tuple_indicesIJXspT1_EEEENSP_IJXspT2_EEEE, symObjAddr: 0xFF60, symBinAddr: 0x100011290, symSize: 0x50 }
  - { offsetInCU: 0x26A6F, offset: 0x26A6F, size: 0x8, addend: 0x0, symName: __ZNSt3__16vectorI8typeEnumNS_9allocatorIS1_EEEC1B8ue170006Ev, symObjAddr: 0xFFB0, symBinAddr: 0x1000112E0, symSize: 0x20 }
  - { offsetInCU: 0x26A99, offset: 0x26A99, size: 0x8, addend: 0x0, symName: __ZNSt3__16vectorI8typeEnumNS_9allocatorIS1_EEEC2B8ue170006Ev, symObjAddr: 0xFFD0, symBinAddr: 0x100011300, symSize: 0x50 }
  - { offsetInCU: 0x26AC3, offset: 0x26AC3, size: 0x8, addend: 0x0, symName: __ZNSt3__117__compressed_pairIP8typeEnumNS_9allocatorIS1_EEEC1B8ue170006IDnNS_18__default_init_tagEEEOT_OT0_, symObjAddr: 0x10020, symBinAddr: 0x100011350, symSize: 0x30 }
  - { offsetInCU: 0x26B1B, offset: 0x26B1B, size: 0x8, addend: 0x0, symName: __ZNSt3__117__compressed_pairIP8typeEnumNS_9allocatorIS1_EEEC2B8ue170006IDnNS_18__default_init_tagEEEOT_OT0_, symObjAddr: 0x10050, symBinAddr: 0x100011380, symSize: 0x40 }
  - { offsetInCU: 0x26B73, offset: 0x26B73, size: 0x8, addend: 0x0, symName: __ZNSt3__122__compressed_pair_elemINS_9allocatorI8typeEnumEELi1ELb1EEC2B8ue170006ENS_18__default_init_tagE, symObjAddr: 0x10090, symBinAddr: 0x1000113C0, symSize: 0x20 }
  - { offsetInCU: 0x26BA8, offset: 0x26BA8, size: 0x8, addend: 0x0, symName: __ZNSt3__19allocatorI8typeEnumEC2B8ue170006Ev, symObjAddr: 0x100B0, symBinAddr: 0x1000113E0, symSize: 0x20 }
  - { offsetInCU: 0x26BD2, offset: 0x26BD2, size: 0x8, addend: 0x0, symName: __ZNSt3__116__non_trivial_ifILb1ENS_9allocatorI8typeEnumEEEC2B8ue170006Ev, symObjAddr: 0x100D0, symBinAddr: 0x100011400, symSize: 0x10 }
  - { offsetInCU: 0x26BFC, offset: 0x26BFC, size: 0x8, addend: 0x0, symName: __ZNSt3__117__compressed_pairIPNS_11__hash_nodeINS_17__hash_value_typeINS_12basic_stringIcNS_11char_traitsIcEENS_9allocatorIcEEEENS_6vectorI8typeEnumNS6_ISA_EEEEEEPvEENS_22__hash_node_destructorINS6_ISF_EEEEE6secondB8ue170006Ev, symObjAddr: 0x100E0, symBinAddr: 0x100011410, symSize: 0x20 }
  - { offsetInCU: 0x26C22, offset: 0x26C22, size: 0x8, addend: 0x0, symName: __ZNSt3__122__compressed_pair_elemINS_22__hash_node_destructorINS_9allocatorINS_11__hash_nodeINS_17__hash_value_typeINS_12basic_stringIcNS_11char_traitsIcEENS2_IcEEEENS_6vectorI8typeEnumNS2_ISB_EEEEEEPvEEEEEELi1ELb0EE5__getB8ue170006Ev, symObjAddr: 0x10100, symBinAddr: 0x100011430, symSize: 0x10 }
  - { offsetInCU: 0x26C48, offset: 0x26C48, size: 0x8, addend: 0x0, symName: __ZNSt3__117__compressed_pairImNS_22__unordered_map_hasherINS_12basic_stringIcNS_11char_traitsIcEENS_9allocatorIcEEEENS_17__hash_value_typeIS7_NS_6vectorI8typeEnumNS5_ISA_EEEEEENS_4hashIS7_EENS_8equal_toIS7_EELb1EEEE5firstB8ue170006Ev, symObjAddr: 0x10110, symBinAddr: 0x100011440, symSize: 0x20 }
  - { offsetInCU: 0x26C6E, offset: 0x26C6E, size: 0x8, addend: 0x0, symName: __ZNSt3__117__compressed_pairIfNS_21__unordered_map_equalINS_12basic_stringIcNS_11char_traitsIcEENS_9allocatorIcEEEENS_17__hash_value_typeIS7_NS_6vectorI8typeEnumNS5_ISA_EEEEEENS_8equal_toIS7_EENS_4hashIS7_EELb1EEEE5firstB8ue170006Ev, symObjAddr: 0x10130, symBinAddr: 0x100011460, symSize: 0x20 }
  - { offsetInCU: 0x26C94, offset: 0x26C94, size: 0x8, addend: 0x0, symName: __ZNSt3__112__hash_tableINS_17__hash_value_typeINS_12basic_stringIcNS_11char_traitsIcEENS_9allocatorIcEEEENS_6vectorI8typeEnumNS5_IS9_EEEEEENS_22__unordered_map_hasherIS7_SC_NS_4hashIS7_EENS_8equal_toIS7_EELb1EEENS_21__unordered_map_equalIS7_SC_SH_SF_Lb1EEENS5_ISC_EEE8__rehashILb1EEEvm, symObjAddr: 0x10150, symBinAddr: 0x100011480, symSize: 0x230 }
  - { offsetInCU: 0x26CE4, offset: 0x26CE4, size: 0x8, addend: 0x0, symName: __ZNSt3__112__hash_tableINS_17__hash_value_typeINS_12basic_stringIcNS_11char_traitsIcEENS_9allocatorIcEEEENS_6vectorI8typeEnumNS5_IS9_EEEEEENS_22__unordered_map_hasherIS7_SC_NS_4hashIS7_EENS_8equal_toIS7_EELb1EEENS_21__unordered_map_equalIS7_SC_SH_SF_Lb1EEENS5_ISC_EEE11__do_rehashILb1EEEvm, symObjAddr: 0x10380, symBinAddr: 0x1000116B0, symSize: 0x250 }
  - { offsetInCU: 0x26DCB, offset: 0x26DCB, size: 0x8, addend: 0x0, symName: __ZNSt3__110unique_ptrIA_PNS_16__hash_node_baseIPNS_11__hash_nodeINS_17__hash_value_typeINS_12basic_stringIcNS_11char_traitsIcEENS_9allocatorIcEEEENS_6vectorI8typeEnumNS7_ISB_EEEEEEPvEEEENS_25__bucket_list_deallocatorINS7_ISJ_EEEEE11get_deleterB8ue170006Ev, symObjAddr: 0x105D0, symBinAddr: 0x100011900, symSize: 0x20 }
  - { offsetInCU: 0x26DF1, offset: 0x26DF1, size: 0x8, addend: 0x0, symName: __ZNSt3__125__bucket_list_deallocatorINS_9allocatorIPNS_16__hash_node_baseIPNS_11__hash_nodeINS_17__hash_value_typeINS_12basic_stringIcNS_11char_traitsIcEENS1_IcEEEENS_6vectorI8typeEnumNS1_ISB_EEEEEEPvEEEEEEE7__allocB8ue170006Ev, symObjAddr: 0x105F0, symBinAddr: 0x100011920, symSize: 0x20 }
  - { offsetInCU: 0x26E17, offset: 0x26E17, size: 0x8, addend: 0x0, symName: __ZNSt3__110unique_ptrIA_PNS_16__hash_node_baseIPNS_11__hash_nodeINS_17__hash_value_typeINS_12basic_stringIcNS_11char_traitsIcEENS_9allocatorIcEEEENS_6vectorI8typeEnumNS7_ISB_EEEEEEPvEEEENS_25__bucket_list_deallocatorINS7_ISJ_EEEEE5resetB8ue170006IPSJ_EENS_9enable_ifIXsr28_CheckArrayPointerConversionIT_EE5valueEvE4typeESS_, symObjAddr: 0x10610, symBinAddr: 0x100011940, symSize: 0x70 }
  - { offsetInCU: 0x26E64, offset: 0x26E64, size: 0x8, addend: 0x0, symName: __ZNSt3__116allocator_traitsINS_9allocatorIPNS_16__hash_node_baseIPNS_11__hash_nodeINS_17__hash_value_typeINS_12basic_stringIcNS_11char_traitsIcEENS1_IcEEEENS_6vectorI8typeEnumNS1_ISB_EEEEEEPvEEEEEEE8allocateB8ue170006ERSK_m, symObjAddr: 0x10680, symBinAddr: 0x1000119B0, symSize: 0x30 }
  - { offsetInCU: 0x26E97, offset: 0x26E97, size: 0x8, addend: 0x0, symName: __ZNSt3__125__bucket_list_deallocatorINS_9allocatorIPNS_16__hash_node_baseIPNS_11__hash_nodeINS_17__hash_value_typeINS_12basic_stringIcNS_11char_traitsIcEENS1_IcEEEENS_6vectorI8typeEnumNS1_ISB_EEEEEEPvEEEEEEE4sizeB8ue170006Ev, symObjAddr: 0x106B0, symBinAddr: 0x1000119E0, symSize: 0x20 }
  - { offsetInCU: 0x26EBD, offset: 0x26EBD, size: 0x8, addend: 0x0, symName: __ZNSt3__117__compressed_pairIPPNS_16__hash_node_baseIPNS_11__hash_nodeINS_17__hash_value_typeINS_12basic_stringIcNS_11char_traitsIcEENS_9allocatorIcEEEENS_6vectorI8typeEnumNS7_ISB_EEEEEEPvEEEENS_25__bucket_list_deallocatorINS7_ISJ_EEEEE6secondB8ue170006Ev, symObjAddr: 0x106D0, symBinAddr: 0x100011A00, symSize: 0x20 }
  - { offsetInCU: 0x26EE3, offset: 0x26EE3, size: 0x8, addend: 0x0, symName: __ZNSt3__122__compressed_pair_elemINS_25__bucket_list_deallocatorINS_9allocatorIPNS_16__hash_node_baseIPNS_11__hash_nodeINS_17__hash_value_typeINS_12basic_stringIcNS_11char_traitsIcEENS2_IcEEEENS_6vectorI8typeEnumNS2_ISC_EEEEEEPvEEEEEEEELi1ELb0EE5__getB8ue170006Ev, symObjAddr: 0x106F0, symBinAddr: 0x100011A20, symSize: 0x10 }
  - { offsetInCU: 0x26F09, offset: 0x26F09, size: 0x8, addend: 0x0, symName: __ZNSt3__117__compressed_pairImNS_9allocatorIPNS_16__hash_node_baseIPNS_11__hash_nodeINS_17__hash_value_typeINS_12basic_stringIcNS_11char_traitsIcEENS1_IcEEEENS_6vectorI8typeEnumNS1_ISB_EEEEEEPvEEEEEEE6secondB8ue170006Ev, symObjAddr: 0x10700, symBinAddr: 0x100011A30, symSize: 0x20 }
  - { offsetInCU: 0x26F2F, offset: 0x26F2F, size: 0x8, addend: 0x0, symName: __ZNSt3__122__compressed_pair_elemINS_9allocatorIPNS_16__hash_node_baseIPNS_11__hash_nodeINS_17__hash_value_typeINS_12basic_stringIcNS_11char_traitsIcEENS1_IcEEEENS_6vectorI8typeEnumNS1_ISB_EEEEEEPvEEEEEELi1ELb1EE5__getB8ue170006Ev, symObjAddr: 0x10720, symBinAddr: 0x100011A50, symSize: 0x10 }
  - { offsetInCU: 0x26F55, offset: 0x26F55, size: 0x8, addend: 0x0, symName: __ZNSt3__117__compressed_pairIPPNS_16__hash_node_baseIPNS_11__hash_nodeINS_17__hash_value_typeINS_12basic_stringIcNS_11char_traitsIcEENS_9allocatorIcEEEENS_6vectorI8typeEnumNS7_ISB_EEEEEEPvEEEENS_25__bucket_list_deallocatorINS7_ISJ_EEEEE5firstB8ue170006Ev, symObjAddr: 0x10730, symBinAddr: 0x100011A60, symSize: 0x20 }
  - { offsetInCU: 0x26F7B, offset: 0x26F7B, size: 0x8, addend: 0x0, symName: __ZNSt3__125__bucket_list_deallocatorINS_9allocatorIPNS_16__hash_node_baseIPNS_11__hash_nodeINS_17__hash_value_typeINS_12basic_stringIcNS_11char_traitsIcEENS1_IcEEEENS_6vectorI8typeEnumNS1_ISB_EEEEEEPvEEEEEEEclB8ue170006EPSJ_, symObjAddr: 0x10750, symBinAddr: 0x100011A80, symSize: 0x50 }
  - { offsetInCU: 0x26FB0, offset: 0x26FB0, size: 0x8, addend: 0x0, symName: __ZNSt3__122__compressed_pair_elemIPPNS_16__hash_node_baseIPNS_11__hash_nodeINS_17__hash_value_typeINS_12basic_stringIcNS_11char_traitsIcEENS_9allocatorIcEEEENS_6vectorI8typeEnumNS7_ISB_EEEEEEPvEEEELi0ELb0EE5__getB8ue170006Ev, symObjAddr: 0x107A0, symBinAddr: 0x100011AD0, symSize: 0x10 }
  - { offsetInCU: 0x26FD6, offset: 0x26FD6, size: 0x8, addend: 0x0, symName: __ZNSt3__116allocator_traitsINS_9allocatorIPNS_16__hash_node_baseIPNS_11__hash_nodeINS_17__hash_value_typeINS_12basic_stringIcNS_11char_traitsIcEENS1_IcEEEENS_6vectorI8typeEnumNS1_ISB_EEEEEEPvEEEEEEE10deallocateB8ue170006ERSK_PSJ_m, symObjAddr: 0x107B0, symBinAddr: 0x100011AE0, symSize: 0x30 }
  - { offsetInCU: 0x27018, offset: 0x27018, size: 0x8, addend: 0x0, symName: __ZNSt3__19allocatorIPNS_16__hash_node_baseIPNS_11__hash_nodeINS_17__hash_value_typeINS_12basic_stringIcNS_11char_traitsIcEENS0_IcEEEENS_6vectorI8typeEnumNS0_ISA_EEEEEEPvEEEEE10deallocateB8ue170006EPSI_m, symObjAddr: 0x107E0, symBinAddr: 0x100011B10, symSize: 0x40 }
  - { offsetInCU: 0x2705A, offset: 0x2705A, size: 0x8, addend: 0x0, symName: __ZNSt3__19allocatorIPNS_16__hash_node_baseIPNS_11__hash_nodeINS_17__hash_value_typeINS_12basic_stringIcNS_11char_traitsIcEENS0_IcEEEENS_6vectorI8typeEnumNS0_ISA_EEEEEEPvEEEEE8allocateB8ue170006Em, symObjAddr: 0x10820, symBinAddr: 0x100011B50, symSize: 0x50 }
  - { offsetInCU: 0x27098, offset: 0x27098, size: 0x8, addend: 0x0, symName: __ZNSt3__116allocator_traitsINS_9allocatorIPNS_16__hash_node_baseIPNS_11__hash_nodeINS_17__hash_value_typeINS_12basic_stringIcNS_11char_traitsIcEENS1_IcEEEENS_6vectorI8typeEnumNS1_ISB_EEEEEEPvEEEEEEE8max_sizeB8ue170006ISK_vEEmRKSK_, symObjAddr: 0x10870, symBinAddr: 0x100011BA0, symSize: 0x20 }
  - { offsetInCU: 0x270C6, offset: 0x270C6, size: 0x8, addend: 0x0, symName: __ZNKSt3__19allocatorIPNS_16__hash_node_baseIPNS_11__hash_nodeINS_17__hash_value_typeINS_12basic_stringIcNS_11char_traitsIcEENS0_IcEEEENS_6vectorI8typeEnumNS0_ISA_EEEEEEPvEEEEE8max_sizeB8ue170006Ev, symObjAddr: 0x10890, symBinAddr: 0x100011BC0, symSize: 0x20 }
  - { offsetInCU: 0x270EC, offset: 0x270EC, size: 0x8, addend: 0x0, symName: __ZNSt3__117__compressed_pairImNS_9allocatorIPNS_16__hash_node_baseIPNS_11__hash_nodeINS_17__hash_value_typeINS_12basic_stringIcNS_11char_traitsIcEENS1_IcEEEENS_6vectorI8typeEnumNS1_ISB_EEEEEEPvEEEEEEE5firstB8ue170006Ev, symObjAddr: 0x108B0, symBinAddr: 0x100011BE0, symSize: 0x20 }
  - { offsetInCU: 0x27112, offset: 0x27112, size: 0x8, addend: 0x0, symName: __ZNSt3__122__compressed_pair_elemINS_16__hash_node_baseIPNS_11__hash_nodeINS_17__hash_value_typeINS_12basic_stringIcNS_11char_traitsIcEENS_9allocatorIcEEEENS_6vectorI8typeEnumNS7_ISB_EEEEEEPvEEEELi0ELb0EE5__getB8ue170006Ev, symObjAddr: 0x108D0, symBinAddr: 0x100011C00, symSize: 0x10 }
  - { offsetInCU: 0x27138, offset: 0x27138, size: 0x8, addend: 0x0, symName: __ZNKSt3__117__compressed_pairIPNS_11__hash_nodeINS_17__hash_value_typeINS_12basic_stringIcNS_11char_traitsIcEENS_9allocatorIcEEEENS_6vectorI8typeEnumNS6_ISA_EEEEEEPvEENS_22__hash_node_destructorINS6_ISF_EEEEE5firstB8ue170006Ev, symObjAddr: 0x108E0, symBinAddr: 0x100011C10, symSize: 0x20 }
  - { offsetInCU: 0x2715E, offset: 0x2715E, size: 0x8, addend: 0x0, symName: __ZNKSt3__122__compressed_pair_elemIPNS_11__hash_nodeINS_17__hash_value_typeINS_12basic_stringIcNS_11char_traitsIcEENS_9allocatorIcEEEENS_6vectorI8typeEnumNS6_ISA_EEEEEEPvEELi0ELb0EE5__getB8ue170006Ev, symObjAddr: 0x10900, symBinAddr: 0x100011C30, symSize: 0x10 }
  - { offsetInCU: 0x27184, offset: 0x27184, size: 0x8, addend: 0x0, symName: __ZNSt3__117__compressed_pairIPNS_11__hash_nodeINS_17__hash_value_typeINS_12basic_stringIcNS_11char_traitsIcEENS_9allocatorIcEEEENS_6vectorI8typeEnumNS6_ISA_EEEEEEPvEENS_22__hash_node_destructorINS6_ISF_EEEEE5firstB8ue170006Ev, symObjAddr: 0x10910, symBinAddr: 0x100011C40, symSize: 0x20 }
  - { offsetInCU: 0x271AA, offset: 0x271AA, size: 0x8, addend: 0x0, symName: __ZNSt3__122__compressed_pair_elemIPNS_11__hash_nodeINS_17__hash_value_typeINS_12basic_stringIcNS_11char_traitsIcEENS_9allocatorIcEEEENS_6vectorI8typeEnumNS6_ISA_EEEEEEPvEELi0ELb0EE5__getB8ue170006Ev, symObjAddr: 0x10930, symBinAddr: 0x100011C60, symSize: 0x10 }
  - { offsetInCU: 0x271D0, offset: 0x271D0, size: 0x8, addend: 0x0, symName: __ZNSt3__110unique_ptrINS_11__hash_nodeINS_17__hash_value_typeINS_12basic_stringIcNS_11char_traitsIcEENS_9allocatorIcEEEENS_6vectorI8typeEnumNS6_ISA_EEEEEEPvEENS_22__hash_node_destructorINS6_ISF_EEEEED2B8ue170006Ev, symObjAddr: 0x10940, symBinAddr: 0x100011C70, symSize: 0x20 }
  - { offsetInCU: 0x271FA, offset: 0x271FA, size: 0x8, addend: 0x0, symName: __ZNSt3__110unique_ptrINS_11__hash_nodeINS_17__hash_value_typeINS_12basic_stringIcNS_11char_traitsIcEENS_9allocatorIcEEEENS_6vectorI8typeEnumNS6_ISA_EEEEEEPvEENS_22__hash_node_destructorINS6_ISF_EEEEE5resetB8ue170006EPSF_, symObjAddr: 0x10960, symBinAddr: 0x100011C90, symSize: 0x70 }
  - { offsetInCU: 0x2723E, offset: 0x2723E, size: 0x8, addend: 0x0, symName: __ZNSt3__122__hash_node_destructorINS_9allocatorINS_11__hash_nodeINS_17__hash_value_typeINS_12basic_stringIcNS_11char_traitsIcEENS1_IcEEEENS_6vectorI8typeEnumNS1_ISA_EEEEEEPvEEEEEclB8ue170006EPSF_, symObjAddr: 0x109D0, symBinAddr: 0x100011D00, symSize: 0x90 }
  - { offsetInCU: 0x27273, offset: 0x27273, size: 0x8, addend: 0x0, symName: __ZNSt3__116allocator_traitsINS_9allocatorINS_11__hash_nodeINS_17__hash_value_typeINS_12basic_stringIcNS_11char_traitsIcEENS1_IcEEEENS_6vectorI8typeEnumNS1_ISA_EEEEEEPvEEEEE7destroyB8ue170006INS_4pairIKS8_SC_EEvvEEvRSG_PT_, symObjAddr: 0x10A60, symBinAddr: 0x100011D90, symSize: 0x20 }
  - { offsetInCU: 0x272AD, offset: 0x272AD, size: 0x8, addend: 0x0, symName: __ZNSt3__116allocator_traitsINS_9allocatorINS_11__hash_nodeINS_17__hash_value_typeINS_12basic_stringIcNS_11char_traitsIcEENS1_IcEEEENS_6vectorI8typeEnumNS1_ISA_EEEEEEPvEEEEE10deallocateB8ue170006ERSG_PSF_m, symObjAddr: 0x10A80, symBinAddr: 0x100011DB0, symSize: 0x30 }
  - { offsetInCU: 0x272EF, offset: 0x272EF, size: 0x8, addend: 0x0, symName: __ZNSt3__14pairIKNS_12basic_stringIcNS_11char_traitsIcEENS_9allocatorIcEEEENS_6vectorI8typeEnumNS4_IS9_EEEEED1Ev, symObjAddr: 0x10AB0, symBinAddr: 0x100011DE0, symSize: 0x20 }
  - { offsetInCU: 0x2731B, offset: 0x2731B, size: 0x8, addend: 0x0, symName: __ZNSt3__14pairIKNS_12basic_stringIcNS_11char_traitsIcEENS_9allocatorIcEEEENS_6vectorI8typeEnumNS4_IS9_EEEEED2Ev, symObjAddr: 0x10AD0, symBinAddr: 0x100011E00, symSize: 0x30 }
  - { offsetInCU: 0x27347, offset: 0x27347, size: 0x8, addend: 0x0, symName: __ZNSt3__16vectorI8typeEnumNS_9allocatorIS1_EEED1B8ue170006Ev, symObjAddr: 0x10B00, symBinAddr: 0x100011E30, symSize: 0x20 }
  - { offsetInCU: 0x27371, offset: 0x27371, size: 0x8, addend: 0x0, symName: __ZNSt3__16vectorI8typeEnumNS_9allocatorIS1_EEED2B8ue170006Ev, symObjAddr: 0x10B20, symBinAddr: 0x100011E50, symSize: 0x40 }
  - { offsetInCU: 0x2739B, offset: 0x2739B, size: 0x8, addend: 0x0, symName: __ZNSt3__16vectorI8typeEnumNS_9allocatorIS1_EEE16__destroy_vectorC1B8ue170006ERS4_, symObjAddr: 0x10B60, symBinAddr: 0x100011E90, symSize: 0x30 }
  - { offsetInCU: 0x273D4, offset: 0x273D4, size: 0x8, addend: 0x0, symName: __ZNSt3__16vectorI8typeEnumNS_9allocatorIS1_EEE16__destroy_vectorclB8ue170006Ev, symObjAddr: 0x10B90, symBinAddr: 0x100011EC0, symSize: 0x80 }
  - { offsetInCU: 0x273FA, offset: 0x273FA, size: 0x8, addend: 0x0, symName: __ZNSt3__16vectorI8typeEnumNS_9allocatorIS1_EEE16__destroy_vectorC2B8ue170006ERS4_, symObjAddr: 0x10C10, symBinAddr: 0x100011F40, symSize: 0x20 }
  - { offsetInCU: 0x27433, offset: 0x27433, size: 0x8, addend: 0x0, symName: __ZNSt3__16vectorI8typeEnumNS_9allocatorIS1_EEE7__clearB8ue170006Ev, symObjAddr: 0x10C30, symBinAddr: 0x100011F60, symSize: 0x20 }
  - { offsetInCU: 0x27459, offset: 0x27459, size: 0x8, addend: 0x0, symName: __ZNSt3__16vectorI8typeEnumNS_9allocatorIS1_EEE22__base_destruct_at_endB8ue170006EPS1_, symObjAddr: 0x10C50, symBinAddr: 0x100011F80, symSize: 0x80 }
  - { offsetInCU: 0x2749D, offset: 0x2749D, size: 0x8, addend: 0x0, symName: __ZNSt3__19allocatorINS_11__hash_nodeINS_17__hash_value_typeINS_12basic_stringIcNS_11char_traitsIcEENS0_IcEEEENS_6vectorI8typeEnumNS0_IS9_EEEEEEPvEEE10deallocateB8ue170006EPSE_m, symObjAddr: 0x10CD0, symBinAddr: 0x100012000, symSize: 0x40 }
  - { offsetInCU: 0x274DF, offset: 0x274DF, size: 0x8, addend: 0x0, symName: __ZNSt3__115__hash_iteratorIPNS_11__hash_nodeINS_17__hash_value_typeINS_12basic_stringIcNS_11char_traitsIcEENS_9allocatorIcEEEENS_6vectorI8typeEnumNS6_ISA_EEEEEEPvEEEC2B8ue170006EPNS_16__hash_node_baseISG_EE, symObjAddr: 0x10D10, symBinAddr: 0x100012040, symSize: 0x20 }
  - { offsetInCU: 0x27518, offset: 0x27518, size: 0x8, addend: 0x0, symName: __ZNSt3__14pairINS_15__hash_iteratorIPNS_11__hash_nodeINS_17__hash_value_typeINS_12basic_stringIcNS_11char_traitsIcEENS_9allocatorIcEEEENS_6vectorI8typeEnumNS7_ISB_EEEEEEPvEEEEbEC2B8ue170006ISI_RbLSF_0EEEOT_OT0_, symObjAddr: 0x10D30, symBinAddr: 0x100012060, symSize: 0x30 }
  - { offsetInCU: 0x27576, offset: 0x27576, size: 0x8, addend: 0x0, symName: __ZNSt3__114pointer_traitsIPNS_17__hash_value_typeINS_12basic_stringIcNS_11char_traitsIcEENS_9allocatorIcEEEENS_6vectorI8typeEnumNS5_IS9_EEEEEEE10pointer_toB8ue170006ERSC_, symObjAddr: 0x10D60, symBinAddr: 0x100012090, symSize: 0xE }
  - { offsetInCU: 0x26, offset: 0x27902, size: 0x8, addend: 0x0, symName: __Z5yylexv, symObjAddr: 0x0, symBinAddr: 0x100012160, symSize: 0x8E0 }
  - { offsetInCU: 0x41, offset: 0x2791D, size: 0x8, addend: 0x0, symName: _yyleng, symObjAddr: 0xBAA0, symBinAddr: 0x100023068, symSize: 0x0 }
  - { offsetInCU: 0x6A, offset: 0x27946, size: 0x8, addend: 0x0, symName: _yyin, symObjAddr: 0xBAA8, symBinAddr: 0x100023070, symSize: 0x0 }
  - { offsetInCU: 0x24A, offset: 0x27B26, size: 0x8, addend: 0x0, symName: _yyout, symObjAddr: 0xBAB0, symBinAddr: 0x100023078, symSize: 0x0 }
  - { offsetInCU: 0x261, offset: 0x27B3D, size: 0x8, addend: 0x0, symName: _yylineno, symObjAddr: 0x1F34, symBinAddr: 0x100023000, symSize: 0x0 }
  - { offsetInCU: 0x278, offset: 0x27B54, size: 0x8, addend: 0x0, symName: _yy_flex_debug, symObjAddr: 0xBAB8, symBinAddr: 0x100023080, symSize: 0x0 }
  - { offsetInCU: 0x28F, offset: 0x27B6B, size: 0x8, addend: 0x0, symName: _yytext, symObjAddr: 0xBAC0, symBinAddr: 0x100023088, symSize: 0x0 }
  - { offsetInCU: 0x2A6, offset: 0x27B82, size: 0x8, addend: 0x0, symName: __ZL7yy_init, symObjAddr: 0xBAC8, symBinAddr: 0x100023098, symSize: 0x0 }
  - { offsetInCU: 0x2C1, offset: 0x27B9D, size: 0x8, addend: 0x0, symName: __ZL8yy_start, symObjAddr: 0xBACC, symBinAddr: 0x10002309C, symSize: 0x0 }
  - { offsetInCU: 0x2DB, offset: 0x27BB7, size: 0x8, addend: 0x0, symName: __ZL15yy_buffer_stack, symObjAddr: 0xBAD0, symBinAddr: 0x1000230A0, symSize: 0x0 }
  - { offsetInCU: 0x3A3, offset: 0x27C7F, size: 0x8, addend: 0x0, symName: __ZL19yy_buffer_stack_top, symObjAddr: 0xBAD8, symBinAddr: 0x1000230A8, symSize: 0x0 }
  - { offsetInCU: 0x3BD, offset: 0x27C99, size: 0x8, addend: 0x0, symName: __ZL10yy_c_buf_p, symObjAddr: 0xBAE0, symBinAddr: 0x1000230B0, symSize: 0x0 }
  - { offsetInCU: 0x3D8, offset: 0x27CB4, size: 0x8, addend: 0x0, symName: __ZL12yy_hold_char, symObjAddr: 0xBAE8, symBinAddr: 0x1000230B8, symSize: 0x0 }
  - { offsetInCU: 0x3F3, offset: 0x27CCF, size: 0x8, addend: 0x0, symName: __ZL5yy_ec, symObjAddr: 0x1F40, symBinAddr: 0x100020850, symSize: 0x0 }
  - { offsetInCU: 0x438, offset: 0x27D14, size: 0x8, addend: 0x0, symName: __ZL9yy_accept, symObjAddr: 0x2040, symBinAddr: 0x100020950, symSize: 0x0 }
  - { offsetInCU: 0x46F, offset: 0x27D4B, size: 0x8, addend: 0x0, symName: __ZL23yy_last_accepting_state, symObjAddr: 0xBAEC, symBinAddr: 0x1000230BC, symSize: 0x0 }
  - { offsetInCU: 0x496, offset: 0x27D72, size: 0x8, addend: 0x0, symName: __ZL22yy_last_accepting_cpos, symObjAddr: 0xBAF0, symBinAddr: 0x1000230C0, symSize: 0x0 }
  - { offsetInCU: 0x4B1, offset: 0x27D8D, size: 0x8, addend: 0x0, symName: __ZL6yy_chk, symObjAddr: 0x2130, symBinAddr: 0x100020A40, symSize: 0x0 }
  - { offsetInCU: 0x4D8, offset: 0x27DB4, size: 0x8, addend: 0x0, symName: __ZL7yy_base, symObjAddr: 0x22B0, symBinAddr: 0x100020BC0, symSize: 0x0 }
  - { offsetInCU: 0x4FF, offset: 0x27DDB, size: 0x8, addend: 0x0, symName: __ZL6yy_def, symObjAddr: 0x23B0, symBinAddr: 0x100020CC0, symSize: 0x0 }
  - { offsetInCU: 0x51A, offset: 0x27DF6, size: 0x8, addend: 0x0, symName: __ZL7yy_meta, symObjAddr: 0x24B0, symBinAddr: 0x100020DC0, symSize: 0x0 }
  - { offsetInCU: 0x541, offset: 0x27E1D, size: 0x8, addend: 0x0, symName: __ZL6yy_nxt, symObjAddr: 0x24E0, symBinAddr: 0x100020DF0, symSize: 0x0 }
  - { offsetInCU: 0x55C, offset: 0x27E38, size: 0x8, addend: 0x0, symName: __ZL10yy_n_chars, symObjAddr: 0xBAF8, symBinAddr: 0x1000230C8, symSize: 0x0 }
  - { offsetInCU: 0x577, offset: 0x27E53, size: 0x8, addend: 0x0, symName: __ZL27yy_did_buffer_switch_on_eof, symObjAddr: 0xBB00, symBinAddr: 0x1000230D0, symSize: 0x0 }
  - { offsetInCU: 0x591, offset: 0x27E6D, size: 0x8, addend: 0x0, symName: __ZL19yy_buffer_stack_max, symObjAddr: 0xBB08, symBinAddr: 0x1000230D8, symSize: 0x0 }
  - { offsetInCU: 0x2DB2, offset: 0x2A68E, size: 0x8, addend: 0x0, symName: __Z5yylexv, symObjAddr: 0x0, symBinAddr: 0x100012160, symSize: 0x8E0 }
  - { offsetInCU: 0x2E92, offset: 0x2A76E, size: 0x8, addend: 0x0, symName: __ZL21yyensure_buffer_stackv, symObjAddr: 0x8E0, symBinAddr: 0x100012A40, symSize: 0x120 }
  - { offsetInCU: 0x2EDB, offset: 0x2A7B7, size: 0x8, addend: 0x0, symName: __Z16yy_create_bufferP7__sFILEi, symObjAddr: 0xA00, symBinAddr: 0x100012B60, symSize: 0xA0 }
  - { offsetInCU: 0x2F27, offset: 0x2A803, size: 0x8, addend: 0x0, symName: __ZL20yy_load_buffer_statev, symObjAddr: 0xAA0, symBinAddr: 0x100012C00, symSize: 0x80 }
  - { offsetInCU: 0x2F42, offset: 0x2A81E, size: 0x8, addend: 0x0, symName: __ZL21yy_get_previous_statev, symObjAddr: 0xB20, symBinAddr: 0x100012C80, symSize: 0x130 }
  - { offsetInCU: 0x2F9E, offset: 0x2A87A, size: 0x8, addend: 0x0, symName: __ZL16yy_try_NUL_transi, symObjAddr: 0xC50, symBinAddr: 0x100012DB0, symSize: 0x100 }
  - { offsetInCU: 0x2FFA, offset: 0x2A8D6, size: 0x8, addend: 0x0, symName: __ZL18yy_get_next_bufferv, symObjAddr: 0xD50, symBinAddr: 0x100012EB0, symSize: 0x660 }
  - { offsetInCU: 0x311D, offset: 0x2A9F9, size: 0x8, addend: 0x0, symName: __ZL14yy_fatal_errorPKc, symObjAddr: 0x13B0, symBinAddr: 0x100013510, symSize: 0x40 }
  - { offsetInCU: 0x3148, offset: 0x2AA24, size: 0x8, addend: 0x0, symName: __Z9yyrestartP7__sFILE, symObjAddr: 0x13F0, symBinAddr: 0x100013550, symSize: 0xD0 }
  - { offsetInCU: 0x3172, offset: 0x2AA4E, size: 0x8, addend: 0x0, symName: __ZL14yy_init_bufferP15yy_buffer_stateP7__sFILE, symObjAddr: 0x14C0, symBinAddr: 0x100013620, symSize: 0x100 }
  - { offsetInCU: 0x31BB, offset: 0x2AA97, size: 0x8, addend: 0x0, symName: __Z19yy_switch_to_bufferP15yy_buffer_state, symObjAddr: 0x15C0, symBinAddr: 0x100013720, symSize: 0x110 }
  - { offsetInCU: 0x31E5, offset: 0x2AAC1, size: 0x8, addend: 0x0, symName: __Z7yyallocm, symObjAddr: 0x16D0, symBinAddr: 0x100013830, symSize: 0x20 }
  - { offsetInCU: 0x3213, offset: 0x2AAEF, size: 0x8, addend: 0x0, symName: __Z16yy_delete_bufferP15yy_buffer_state, symObjAddr: 0x16F0, symBinAddr: 0x100013850, symSize: 0xB0 }
  - { offsetInCU: 0x323D, offset: 0x2AB19, size: 0x8, addend: 0x0, symName: __Z6yyfreePv, symObjAddr: 0x17A0, symBinAddr: 0x100013900, symSize: 0x20 }
  - { offsetInCU: 0x3267, offset: 0x2AB43, size: 0x8, addend: 0x0, symName: __Z15yy_flush_bufferP15yy_buffer_state, symObjAddr: 0x17C0, symBinAddr: 0x100013920, symSize: 0xC0 }
  - { offsetInCU: 0x3291, offset: 0x2AB6D, size: 0x8, addend: 0x0, symName: __Z19yypush_buffer_stateP15yy_buffer_state, symObjAddr: 0x1880, symBinAddr: 0x1000139E0, symSize: 0x130 }
  - { offsetInCU: 0x32BB, offset: 0x2AB97, size: 0x8, addend: 0x0, symName: __Z18yypop_buffer_statev, symObjAddr: 0x19B0, symBinAddr: 0x100013B10, symSize: 0x120 }
  - { offsetInCU: 0x32D6, offset: 0x2ABB2, size: 0x8, addend: 0x0, symName: __Z14yy_scan_bufferPcm, symObjAddr: 0x1AD0, symBinAddr: 0x100013C30, symSize: 0x120 }
  - { offsetInCU: 0x3322, offset: 0x2ABFE, size: 0x8, addend: 0x0, symName: __Z14yy_scan_stringPKc, symObjAddr: 0x1BF0, symBinAddr: 0x100013D50, symSize: 0x30 }
  - { offsetInCU: 0x3350, offset: 0x2AC2C, size: 0x8, addend: 0x0, symName: __Z13yy_scan_bytesPKcm, symObjAddr: 0x1C20, symBinAddr: 0x100013D80, symSize: 0xE0 }
  - { offsetInCU: 0x33C9, offset: 0x2ACA5, size: 0x8, addend: 0x0, symName: __Z12yyget_linenov, symObjAddr: 0x1D00, symBinAddr: 0x100013E60, symSize: 0x10 }
  - { offsetInCU: 0x33E8, offset: 0x2ACC4, size: 0x8, addend: 0x0, symName: __Z8yyget_inv, symObjAddr: 0x1D10, symBinAddr: 0x100013E70, symSize: 0x10 }
  - { offsetInCU: 0x3407, offset: 0x2ACE3, size: 0x8, addend: 0x0, symName: __Z9yyget_outv, symObjAddr: 0x1D20, symBinAddr: 0x100013E80, symSize: 0x10 }
  - { offsetInCU: 0x3426, offset: 0x2AD02, size: 0x8, addend: 0x0, symName: __Z10yyget_lengv, symObjAddr: 0x1D30, symBinAddr: 0x100013E90, symSize: 0x10 }
  - { offsetInCU: 0x3445, offset: 0x2AD21, size: 0x8, addend: 0x0, symName: __Z10yyget_textv, symObjAddr: 0x1D40, symBinAddr: 0x100013EA0, symSize: 0x10 }
  - { offsetInCU: 0x3464, offset: 0x2AD40, size: 0x8, addend: 0x0, symName: __Z12yyset_linenoi, symObjAddr: 0x1D50, symBinAddr: 0x100013EB0, symSize: 0x20 }
  - { offsetInCU: 0x348E, offset: 0x2AD6A, size: 0x8, addend: 0x0, symName: __Z8yyset_inP7__sFILE, symObjAddr: 0x1D70, symBinAddr: 0x100013ED0, symSize: 0x20 }
  - { offsetInCU: 0x34B8, offset: 0x2AD94, size: 0x8, addend: 0x0, symName: __Z9yyset_outP7__sFILE, symObjAddr: 0x1D90, symBinAddr: 0x100013EF0, symSize: 0x20 }
  - { offsetInCU: 0x34E2, offset: 0x2ADBE, size: 0x8, addend: 0x0, symName: __Z11yyget_debugv, symObjAddr: 0x1DB0, symBinAddr: 0x100013F10, symSize: 0x10 }
  - { offsetInCU: 0x3501, offset: 0x2ADDD, size: 0x8, addend: 0x0, symName: __Z11yyset_debugi, symObjAddr: 0x1DC0, symBinAddr: 0x100013F20, symSize: 0x20 }
  - { offsetInCU: 0x352B, offset: 0x2AE07, size: 0x8, addend: 0x0, symName: __Z13yylex_destroyv, symObjAddr: 0x1DE0, symBinAddr: 0x100013F40, symSize: 0xD0 }
  - { offsetInCU: 0x354A, offset: 0x2AE26, size: 0x8, addend: 0x0, symName: __ZL15yy_init_globalsv, symObjAddr: 0x1EB0, symBinAddr: 0x100014010, symSize: 0x60 }
  - { offsetInCU: 0x3569, offset: 0x2AE45, size: 0x8, addend: 0x0, symName: __Z9yyreallocPvm, symObjAddr: 0x1F10, symBinAddr: 0x100014070, symSize: 0x23 }
  - { offsetInCU: 0x34, offset: 0x2AEB6, size: 0x8, addend: 0x0, symName: _last_token, symObjAddr: 0x268, symBinAddr: 0x100023090, symSize: 0x0 }
  - { offsetInCU: 0x5C, offset: 0x2AF27, size: 0x8, addend: 0x0, symName: __ZNSt3__1L19piecewise_constructE, symObjAddr: 0x101E4, symBinAddr: 0x100020F6A, symSize: 0x0 }
  - { offsetInCU: 0x56CE, offset: 0x30599, size: 0x8, addend: 0x0, symName: __ZNSt3__17advanceB8ue170006IPNS_12basic_stringIcNS_11char_traitsIcEENS_9allocatorIcEEEEllvEEvRT_T0_, symObjAddr: 0x6B10, symBinAddr: 0x100018CE0, symSize: 0x30 }
  - { offsetInCU: 0xC4E0, offset: 0x373AB, size: 0x8, addend: 0x0, symName: __ZNSt3__17advanceB8ue170006IP8typeEnumllvEEvRT_T0_, symObjAddr: 0xCC50, symBinAddr: 0x10001C780, symSize: 0x30 }
  - { offsetInCU: 0xC75E, offset: 0x37629, size: 0x8, addend: 0x0, symName: __ZNSt3__124__put_character_sequenceB8ue170006IcNS_11char_traitsIcEEEERNS_13basic_ostreamIT_T0_EES7_PKS4_m, symObjAddr: 0xF260, symBinAddr: 0x10001E510, symSize: 0x1F0 }
  - { offsetInCU: 0x10F4E, offset: 0x3BE19, size: 0x8, addend: 0x0, symName: __ZNSt3__1neB8ue170006ERKNS_19__hash_map_iteratorINS_15__hash_iteratorIPNS_11__hash_nodeINS_17__hash_value_typeINS_12basic_stringIcNS_11char_traitsIcEENS_9allocatorIcEEEENS_6vectorIS9_NS7_IS9_EEEEEEPvEEEEEESK_, symObjAddr: 0x5B0, symBinAddr: 0x1000145A0, symSize: 0x30 }
  - { offsetInCU: 0x10F8B, offset: 0x3BE56, size: 0x8, addend: 0x0, symName: __ZNSt3__1lsB8ue170006INS_11char_traitsIcEEEERNS_13basic_ostreamIcT_EES6_PKc, symObjAddr: 0x1620, symBinAddr: 0x100015490, symSize: 0x40 }
  - { offsetInCU: 0x10FD1, offset: 0x3BE9C, size: 0x8, addend: 0x0, symName: __ZNSt3__1lsB8ue170006IcNS_11char_traitsIcEENS_9allocatorIcEEEERNS_13basic_ostreamIT_T0_EES9_RKNS_12basic_stringIS6_S7_T1_EE, symObjAddr: 0x1A00, symBinAddr: 0x100015870, symSize: 0x50 }
  - { offsetInCU: 0x11029, offset: 0x3BEF4, size: 0x8, addend: 0x0, symName: __ZNSt3__14endlB8ue170006IcNS_11char_traitsIcEEEERNS_13basic_ostreamIT_T0_EES7_, symObjAddr: 0x1A70, symBinAddr: 0x1000158E0, symSize: 0x50 }
  - { offsetInCU: 0x11069, offset: 0x3BF34, size: 0x8, addend: 0x0, symName: __ZNSt3__1neB8ue170006ERKNS_19__hash_map_iteratorINS_15__hash_iteratorIPNS_11__hash_nodeINS_17__hash_value_typeINS_12basic_stringIcNS_11char_traitsIcEENS_9allocatorIcEEEEbEEPvEEEEEESH_, symObjAddr: 0x1D90, symBinAddr: 0x100015C00, symSize: 0x30 }
  - { offsetInCU: 0x110A6, offset: 0x3BF71, size: 0x8, addend: 0x0, symName: __ZNSt3__1neB8ue170006ERKNS_15__hash_iteratorIPNS_11__hash_nodeINS_17__hash_value_typeINS_12basic_stringIcNS_11char_traitsIcEENS_9allocatorIcEEEENS_6vectorIS8_NS6_IS8_EEEEEEPvEEEESI_, symObjAddr: 0x2860, symBinAddr: 0x100015E70, symSize: 0x30 }
  - { offsetInCU: 0x110E3, offset: 0x3BFAE, size: 0x8, addend: 0x0, symName: __ZNSt3__1eqB8ue170006ERKNS_15__hash_iteratorIPNS_11__hash_nodeINS_17__hash_value_typeINS_12basic_stringIcNS_11char_traitsIcEENS_9allocatorIcEEEENS_6vectorIS8_NS6_IS8_EEEEEEPvEEEESI_, symObjAddr: 0x2890, symBinAddr: 0x100015EA0, symSize: 0x30 }
  - { offsetInCU: 0x111B9, offset: 0x3C084, size: 0x8, addend: 0x0, symName: __ZNSt3__122__make_exception_guardB8ue170006INS_6vectorINS_12basic_stringIcNS_11char_traitsIcEENS_9allocatorIcEEEENS5_IS7_EEE16__destroy_vectorEEENS_28__exception_guard_exceptionsIT_EESC_, symObjAddr: 0x2B90, symBinAddr: 0x100016080, symSize: 0x40 }
  - { offsetInCU: 0x111EE, offset: 0x3C0B9, size: 0x8, addend: 0x0, symName: __ZNSt3__119__allocate_at_leastB8ue170006INS_9allocatorINS_12basic_stringIcNS_11char_traitsIcEENS1_IcEEEEEEEENS_19__allocation_resultINS_16allocator_traitsIT_E7pointerEEERSA_m, symObjAddr: 0x2F40, symBinAddr: 0x100016430, symSize: 0x40 }
  - { offsetInCU: 0x11231, offset: 0x3C0FC, size: 0x8, addend: 0x0, symName: __ZNSt3__112__to_addressB8ue170006INS_12basic_stringIcNS_11char_traitsIcEENS_9allocatorIcEEEEEEPT_S8_, symObjAddr: 0x3450, symBinAddr: 0x100016710, symSize: 0x10 }
  - { offsetInCU: 0x11266, offset: 0x3C131, size: 0x8, addend: 0x0, symName: __ZNSt3__116forward_as_tupleB8ue170006IJRKNS_12basic_stringIcNS_11char_traitsIcEENS_9allocatorIcEEEEEEENS_5tupleIJDpOT_EEESC_, symObjAddr: 0x4180, symBinAddr: 0x100017290, symSize: 0x30 }
  - { offsetInCU: 0x112BD, offset: 0x3C188, size: 0x8, addend: 0x0, symName: __ZNSt3__13getB8ue170006ILm0EJRKNS_12basic_stringIcNS_11char_traitsIcEENS_9allocatorIcEEEEEEERNS_13tuple_elementIXT_ENS_5tupleIJDpT0_EEEE4typeERSD_, symObjAddr: 0x5930, symBinAddr: 0x100017BF0, symSize: 0x20 }
  - { offsetInCU: 0x11315, offset: 0x3C1E0, size: 0x8, addend: 0x0, symName: __ZNSt3__18distanceB8ue170006IPNS_12basic_stringIcNS_11char_traitsIcEENS_9allocatorIcEEEEEENS_15iterator_traitsIT_E15difference_typeES9_S9_, symObjAddr: 0x6820, symBinAddr: 0x1000189F0, symSize: 0x30 }
  - { offsetInCU: 0x11358, offset: 0x3C223, size: 0x8, addend: 0x0, symName: __ZNSt3__14nextB8ue170006IPNS_12basic_stringIcNS_11char_traitsIcEENS_9allocatorIcEEEEEENS_9enable_ifIXsr29__has_input_iterator_categoryIT_EE5valueES9_E4typeES9_NS_15iterator_traitsIS9_E15difference_typeE, symObjAddr: 0x6850, symBinAddr: 0x100018A20, symSize: 0x30 }
  - { offsetInCU: 0x1139B, offset: 0x3C266, size: 0x8, addend: 0x0, symName: __ZNSt3__14copyB8ue170006IPNS_12basic_stringIcNS_11char_traitsIcEENS_9allocatorIcEEEES7_EET0_T_S9_S8_, symObjAddr: 0x6880, symBinAddr: 0x100018A50, symSize: 0x40 }
  - { offsetInCU: 0x113F5, offset: 0x3C2C0, size: 0x8, addend: 0x0, symName: __ZNSt3__16__copyB8ue170006INS_17_ClassicAlgPolicyEPNS_12basic_stringIcNS_11char_traitsIcEENS_9allocatorIcEEEES8_S8_EENS_4pairIT0_T2_EESA_T1_SB_, symObjAddr: 0x6950, symBinAddr: 0x100018B20, symSize: 0x40 }
  - { offsetInCU: 0x11461, offset: 0x3C32C, size: 0x8, addend: 0x0, symName: __ZNSt3__121__convert_to_integralB8ue170006El, symObjAddr: 0x6B40, symBinAddr: 0x100018D10, symSize: 0x10 }
  - { offsetInCU: 0x1148D, offset: 0x3C358, size: 0x8, addend: 0x0, symName: __ZNSt3__19__advanceB8ue170006IPNS_12basic_stringIcNS_11char_traitsIcEENS_9allocatorIcEEEEEEvRT_NS_15iterator_traitsIS8_E15difference_typeENS_26random_access_iterator_tagE, symObjAddr: 0x6B50, symBinAddr: 0x100018D20, symSize: 0x20 }
  - { offsetInCU: 0x114D8, offset: 0x3C3A3, size: 0x8, addend: 0x0, symName: __ZNSt3__130__uninitialized_allocator_copyB8ue170006INS_9allocatorINS_12basic_stringIcNS_11char_traitsIcEENS1_IcEEEEEEPS6_S8_S8_EET2_RT_T0_T1_S9_, symObjAddr: 0x6B70, symBinAddr: 0x100018D40, symSize: 0x80 }
  - { offsetInCU: 0x11575, offset: 0x3C440, size: 0x8, addend: 0x0, symName: __ZNSt3__114__unwrap_rangeB8ue170006IPNS_12basic_stringIcNS_11char_traitsIcEENS_9allocatorIcEEEES7_EENS_4pairIT0_S9_EET_SB_, symObjAddr: 0x6BF0, symBinAddr: 0x100018DC0, symSize: 0x50 }
  - { offsetInCU: 0x115C1, offset: 0x3C48C, size: 0x8, addend: 0x0, symName: __ZNSt3__135__uninitialized_allocator_copy_implB8ue170006INS_9allocatorINS_12basic_stringIcNS_11char_traitsIcEENS1_IcEEEEEEPS6_S8_S8_EET2_RT_T0_T1_S9_, symObjAddr: 0x6C40, symBinAddr: 0x100018E10, symSize: 0x100 }
  - { offsetInCU: 0x1165F, offset: 0x3C52A, size: 0x8, addend: 0x0, symName: __ZNSt3__113__unwrap_iterB8ue170006IPNS_12basic_stringIcNS_11char_traitsIcEENS_9allocatorIcEEEENS_18__unwrap_iter_implIS7_Lb1EEELi0EEEDTclsrT0_8__unwrapclsr3stdE7declvalIT_EEEESB_, symObjAddr: 0x6D40, symBinAddr: 0x100018F10, symSize: 0x20 }
  - { offsetInCU: 0x116A3, offset: 0x3C56E, size: 0x8, addend: 0x0, symName: __ZNSt3__113__rewrap_iterB8ue170006IPNS_12basic_stringIcNS_11char_traitsIcEENS_9allocatorIcEEEES7_NS_18__unwrap_iter_implIS7_Lb1EEEEET_SA_T0_, symObjAddr: 0x6D60, symBinAddr: 0x100018F30, symSize: 0x40 }
  - { offsetInCU: 0x116F8, offset: 0x3C5C3, size: 0x8, addend: 0x0, symName: __ZNSt3__19make_pairB8ue170006IPNS_12basic_stringIcNS_11char_traitsIcEENS_9allocatorIcEEEES7_EENS_4pairINS_18__unwrap_ref_decayIT_E4typeENS9_IT0_E4typeEEEOSA_OSD_, symObjAddr: 0x6DA0, symBinAddr: 0x100018F70, symSize: 0x30 }
  - { offsetInCU: 0x1181B, offset: 0x3C6E6, size: 0x8, addend: 0x0, symName: __ZNSt3__122__make_exception_guardB8ue170006INS_29_AllocatorDestroyRangeReverseINS_9allocatorINS_12basic_stringIcNS_11char_traitsIcEENS2_IcEEEEEEPS7_EEEENS_28__exception_guard_exceptionsIT_EESC_, symObjAddr: 0x6E30, symBinAddr: 0x100019000, symSize: 0x60 }
  - { offsetInCU: 0x11850, offset: 0x3C71B, size: 0x8, addend: 0x0, symName: __ZNSt3__119__allocator_destroyB8ue170006INS_9allocatorINS_12basic_stringIcNS_11char_traitsIcEENS1_IcEEEEEENS_16reverse_iteratorIPS6_EESA_EEvRT_T0_T1_, symObjAddr: 0x70C0, symBinAddr: 0x100019290, symSize: 0x70 }
  - { offsetInCU: 0x118B3, offset: 0x3C77E, size: 0x8, addend: 0x0, symName: __ZNSt3__1neB8ue170006IPNS_12basic_stringIcNS_11char_traitsIcEENS_9allocatorIcEEEES7_EEbRKNS_16reverse_iteratorIT_EERKNS8_IT0_EE, symObjAddr: 0x7160, symBinAddr: 0x100019330, symSize: 0x40 }
  - { offsetInCU: 0x118FF, offset: 0x3C7CA, size: 0x8, addend: 0x0, symName: __ZNSt3__112__to_addressB8ue170006INS_16reverse_iteratorIPNS_12basic_stringIcNS_11char_traitsIcEENS_9allocatorIcEEEEEEvEEu7__decayIDTclsr19__to_address_helperIT_EE6__callclsr3stdE7declvalIRKSA_EEEEESC_, symObjAddr: 0x71A0, symBinAddr: 0x100019370, symSize: 0x20 }
  - { offsetInCU: 0x119B2, offset: 0x3C87D, size: 0x8, addend: 0x0, symName: __ZNSt3__123__dispatch_copy_or_moveB8ue170006INS_17_ClassicAlgPolicyENS_11__copy_loopIS1_EENS_14__copy_trivialEPNS_12basic_stringIcNS_11char_traitsIcEENS_9allocatorIcEEEESB_SB_EENS_4pairIT2_T4_EESD_T3_SE_, symObjAddr: 0x7340, symBinAddr: 0x100019510, symSize: 0x40 }
  - { offsetInCU: 0x11A30, offset: 0x3C8FB, size: 0x8, addend: 0x0, symName: __ZNSt3__121__unwrap_and_dispatchB8ue170006INS_10__overloadINS_11__copy_loopINS_17_ClassicAlgPolicyEEENS_14__copy_trivialEEEPNS_12basic_stringIcNS_11char_traitsIcEENS_9allocatorIcEEEESD_SD_Li0EEENS_4pairIT0_T2_EESF_T1_SG_, symObjAddr: 0x7380, symBinAddr: 0x100019550, symSize: 0xB0 }
  - { offsetInCU: 0x11B11, offset: 0x3C9DC, size: 0x8, addend: 0x0, symName: __ZNSt3__114__rewrap_rangeB8ue170006IPNS_12basic_stringIcNS_11char_traitsIcEENS_9allocatorIcEEEES7_EET_S8_T0_, symObjAddr: 0x74B0, symBinAddr: 0x100019680, symSize: 0x30 }
  - { offsetInCU: 0x11B5D, offset: 0x3CA28, size: 0x8, addend: 0x0, symName: __ZNSt3__110__distanceB8ue170006IPNS_12basic_stringIcNS_11char_traitsIcEENS_9allocatorIcEEEEEENS_15iterator_traitsIT_E15difference_typeES9_S9_NS_26random_access_iterator_tagE, symObjAddr: 0x75C0, symBinAddr: 0x100019790, symSize: 0x30 }
  - { offsetInCU: 0x11BC9, offset: 0x3CA94, size: 0x8, addend: 0x0, symName: __ZNSt3__18distanceB8ue170006IP8typeEnumEENS_15iterator_traitsIT_E15difference_typeES4_S4_, symObjAddr: 0xC820, symBinAddr: 0x10001C490, symSize: 0x30 }
  - { offsetInCU: 0x11C0C, offset: 0x3CAD7, size: 0x8, addend: 0x0, symName: __ZNSt3__14nextB8ue170006IP8typeEnumEENS_9enable_ifIXsr29__has_input_iterator_categoryIT_EE5valueES4_E4typeES4_NS_15iterator_traitsIS4_E15difference_typeE, symObjAddr: 0xC8A0, symBinAddr: 0x10001C4C0, symSize: 0x30 }
  - { offsetInCU: 0x11C4F, offset: 0x3CB1A, size: 0x8, addend: 0x0, symName: __ZNSt3__14copyB8ue170006IP8typeEnumS2_EET0_T_S4_S3_, symObjAddr: 0xC8D0, symBinAddr: 0x10001C4F0, symSize: 0x40 }
  - { offsetInCU: 0x11CA9, offset: 0x3CB74, size: 0x8, addend: 0x0, symName: __ZNSt3__16__copyB8ue170006INS_17_ClassicAlgPolicyEP8typeEnumS3_S3_EENS_4pairIT0_T2_EES5_T1_S6_, symObjAddr: 0xC9A0, symBinAddr: 0x10001C5C0, symSize: 0x40 }
  - { offsetInCU: 0x11D15, offset: 0x3CBE0, size: 0x8, addend: 0x0, symName: __ZNSt3__19__advanceB8ue170006IP8typeEnumEEvRT_NS_15iterator_traitsIS3_E15difference_typeENS_26random_access_iterator_tagE, symObjAddr: 0xCC80, symBinAddr: 0x10001C7B0, symSize: 0x20 }
  - { offsetInCU: 0x11D60, offset: 0x3CC2B, size: 0x8, addend: 0x0, symName: __ZNSt3__130__uninitialized_allocator_copyB8ue170006INS_9allocatorI8typeEnumEEPS2_S4_S4_EET2_RT_T0_T1_S5_, symObjAddr: 0xCCD0, symBinAddr: 0x10001C7D0, symSize: 0x80 }
  - { offsetInCU: 0x11DFD, offset: 0x3CCC8, size: 0x8, addend: 0x0, symName: __ZNSt3__114__unwrap_rangeB8ue170006IP8typeEnumS2_EENS_4pairIT0_S4_EET_S6_, symObjAddr: 0xCDD0, symBinAddr: 0x10001C850, symSize: 0x50 }
  - { offsetInCU: 0x11E49, offset: 0x3CD14, size: 0x8, addend: 0x0, symName: __ZNSt3__135__uninitialized_allocator_copy_implB8ue170006INS_9allocatorI8typeEnumEES2_S2_S2_LPv0EEEPT2_RT_PT0_SA_S6_, symObjAddr: 0xCE20, symBinAddr: 0x10001C8A0, symSize: 0x30 }
  - { offsetInCU: 0x11ECA, offset: 0x3CD95, size: 0x8, addend: 0x0, symName: __ZNSt3__113__unwrap_iterB8ue170006IP8typeEnumNS_18__unwrap_iter_implIS2_Lb1EEELi0EEEDTclsrT0_8__unwrapclsr3stdE7declvalIT_EEEES6_, symObjAddr: 0xCE50, symBinAddr: 0x10001C8D0, symSize: 0x20 }
  - { offsetInCU: 0x11F0E, offset: 0x3CDD9, size: 0x8, addend: 0x0, symName: __ZNSt3__113__rewrap_iterB8ue170006IP8typeEnumS2_NS_18__unwrap_iter_implIS2_Lb1EEEEET_S5_T0_, symObjAddr: 0xCE70, symBinAddr: 0x10001C8F0, symSize: 0x40 }
  - { offsetInCU: 0x11F63, offset: 0x3CE2E, size: 0x8, addend: 0x0, symName: __ZNSt3__19make_pairB8ue170006IP8typeEnumS2_EENS_4pairINS_18__unwrap_ref_decayIT_E4typeENS4_IT0_E4typeEEEOS5_OS8_, symObjAddr: 0xCEB0, symBinAddr: 0x10001C930, symSize: 0x30 }
  - { offsetInCU: 0x12108, offset: 0x3CFD3, size: 0x8, addend: 0x0, symName: __ZNSt3__123__dispatch_copy_or_moveB8ue170006INS_17_ClassicAlgPolicyENS_11__copy_loopIS1_EENS_14__copy_trivialEP8typeEnumS6_S6_EENS_4pairIT2_T4_EES8_T3_S9_, symObjAddr: 0xD010, symBinAddr: 0x10001CA30, symSize: 0x40 }
  - { offsetInCU: 0x12186, offset: 0x3D051, size: 0x8, addend: 0x0, symName: __ZNSt3__121__unwrap_and_dispatchB8ue170006INS_10__overloadINS_11__copy_loopINS_17_ClassicAlgPolicyEEENS_14__copy_trivialEEEP8typeEnumS8_S8_Li0EEENS_4pairIT0_T2_EESA_T1_SB_, symObjAddr: 0xD050, symBinAddr: 0x10001CA70, symSize: 0xB0 }
  - { offsetInCU: 0x1225B, offset: 0x3D126, size: 0x8, addend: 0x0, symName: __ZNSt3__114__rewrap_rangeB8ue170006IP8typeEnumS2_EET_S3_T0_, symObjAddr: 0xD140, symBinAddr: 0x10001CB60, symSize: 0x30 }
  - { offsetInCU: 0x122A7, offset: 0x3D172, size: 0x8, addend: 0x0, symName: __ZNSt3__119__copy_trivial_implB8ue170006I8typeEnumS1_EENS_4pairIPT_PT0_EES4_S4_S6_, symObjAddr: 0xD170, symBinAddr: 0x10001CB90, symSize: 0x70 }
  - { offsetInCU: 0x1230F, offset: 0x3D1DA, size: 0x8, addend: 0x0, symName: __ZNSt3__119__constexpr_memmoveB8ue170006I8typeEnumS1_Li0EEEPT_S3_PT0_NS_15__element_countE, symObjAddr: 0xD1E0, symBinAddr: 0x10001CC00, symSize: 0x50 }
  - { offsetInCU: 0x1237D, offset: 0x3D248, size: 0x8, addend: 0x0, symName: __ZNSt3__19make_pairB8ue170006IRP8typeEnumS2_EENS_4pairINS_18__unwrap_ref_decayIT_E4typeENS5_IT0_E4typeEEEOS6_OS9_, symObjAddr: 0xD230, symBinAddr: 0x10001CC50, symSize: 0x30 }
  - { offsetInCU: 0x123CC, offset: 0x3D297, size: 0x8, addend: 0x0, symName: __ZNSt3__110__distanceB8ue170006IP8typeEnumEENS_15iterator_traitsIT_E15difference_typeES4_S4_NS_26random_access_iterator_tagE, symObjAddr: 0xD880, symBinAddr: 0x10001CDC0, symSize: 0x20 }
  - { offsetInCU: 0x1241A, offset: 0x3D2E5, size: 0x8, addend: 0x0, symName: __ZNSt3__112__to_addressB8ue170006IP4NodeEEPT_S4_, symObjAddr: 0xDD60, symBinAddr: 0x10001D010, symSize: 0x10 }
  - { offsetInCU: 0x1244F, offset: 0x3D31A, size: 0x8, addend: 0x0, symName: __ZNSt3__119__allocate_at_leastB8ue170006INS_9allocatorIP4NodeEEEENS_19__allocation_resultINS_16allocator_traitsIT_E7pointerEEERS7_m, symObjAddr: 0xE2F0, symBinAddr: 0x10001D5A0, symSize: 0x40 }
  - { offsetInCU: 0x12492, offset: 0x3D35D, size: 0x8, addend: 0x0, symName: __ZNSt3__142__uninitialized_allocator_move_if_noexceptB8ue170006INS_9allocatorIP4NodeEENS_16reverse_iteratorIPS3_EES7_S3_vEET1_RT_T0_SB_S8_, symObjAddr: 0xE530, symBinAddr: 0x10001D7E0, symSize: 0x70 }
  - { offsetInCU: 0x1250E, offset: 0x3D3D9, size: 0x8, addend: 0x0, symName: __ZNSt3__14swapB8ue170006IPP4NodeEENS_9enable_ifIXaasr21is_move_constructibleIT_EE5valuesr18is_move_assignableIS5_EE5valueEvE4typeERS5_S8_, symObjAddr: 0xE5F0, symBinAddr: 0x10001D8A0, symSize: 0x40 }
  - { offsetInCU: 0x1255F, offset: 0x3D42A, size: 0x8, addend: 0x0, symName: __ZNSt3__14moveB8ue170006INS_16reverse_iteratorIPP4NodeEES5_EET0_T_S7_S6_, symObjAddr: 0xE720, symBinAddr: 0x10001D9D0, symSize: 0x80 }
  - { offsetInCU: 0x125B9, offset: 0x3D484, size: 0x8, addend: 0x0, symName: __ZNSt3__16__moveB8ue170006INS_17_ClassicAlgPolicyENS_16reverse_iteratorIPP4NodeEES6_S6_EENS_4pairIT0_T2_EES8_T1_S9_, symObjAddr: 0xE7A0, symBinAddr: 0x10001DA50, symSize: 0x90 }
  - { offsetInCU: 0x12625, offset: 0x3D4F0, size: 0x8, addend: 0x0, symName: __ZNSt3__123__dispatch_copy_or_moveB8ue170006INS_17_ClassicAlgPolicyENS_11__move_loopIS1_EENS_14__move_trivialENS_16reverse_iteratorIPP4NodeEES9_S9_EENS_4pairIT2_T4_EESB_T3_SC_, symObjAddr: 0xE830, symBinAddr: 0x10001DAE0, symSize: 0x90 }
  - { offsetInCU: 0x126A3, offset: 0x3D56E, size: 0x8, addend: 0x0, symName: __ZNSt3__121__unwrap_and_dispatchB8ue170006INS_10__overloadINS_11__move_loopINS_17_ClassicAlgPolicyEEENS_14__move_trivialEEENS_16reverse_iteratorIPP4NodeEESB_SB_Li0EEENS_4pairIT0_T2_EESD_T1_SE_, symObjAddr: 0xE8C0, symBinAddr: 0x10001DB70, symSize: 0x210 }
  - { offsetInCU: 0x12732, offset: 0x3D5FD, size: 0x8, addend: 0x0, symName: __ZNSt3__114__unwrap_rangeB8ue170006INS_16reverse_iteratorIPP4NodeEES5_EENS_4pairIT0_S7_EET_S9_, symObjAddr: 0xEAD0, symBinAddr: 0x10001DD80, symSize: 0x90 }
  - { offsetInCU: 0x128A4, offset: 0x3D76F, size: 0x8, addend: 0x0, symName: __ZNSt3__113__unwrap_iterB8ue170006INS_16reverse_iteratorIPP4NodeEENS_18__unwrap_iter_implIS5_Lb0EEELi0EEEDTclsrT0_8__unwrapclsr3stdE7declvalIT_EEEES9_, symObjAddr: 0xEC00, symBinAddr: 0x10001DEB0, symSize: 0x40 }
  - { offsetInCU: 0x128E8, offset: 0x3D7B3, size: 0x8, addend: 0x0, symName: __ZNSt3__19make_pairB8ue170006INS_16reverse_iteratorIPP4NodeEES5_EENS_4pairINS_18__unwrap_ref_decayIT_E4typeENS7_IT0_E4typeEEEOS8_OSB_, symObjAddr: 0xEC40, symBinAddr: 0x10001DEF0, symSize: 0x30 }
  - { offsetInCU: 0x12937, offset: 0x3D802, size: 0x8, addend: 0x0, symName: __ZNSt3__114__rewrap_rangeB8ue170006INS_16reverse_iteratorIPP4NodeEES5_EET_S6_T0_, symObjAddr: 0xEC70, symBinAddr: 0x10001DF20, symSize: 0x60 }
  - { offsetInCU: 0x12983, offset: 0x3D84E, size: 0x8, addend: 0x0, symName: __ZNSt3__113__rewrap_iterB8ue170006INS_16reverse_iteratorIPP4NodeEES5_NS_18__unwrap_iter_implIS5_Lb0EEEEET_S8_T0_, symObjAddr: 0xECD0, symBinAddr: 0x10001DF80, symSize: 0x70 }
  - { offsetInCU: 0x129D8, offset: 0x3D8A3, size: 0x8, addend: 0x0, symName: __ZNSt3__1neB8ue170006IPP4NodeS3_EEbRKNS_16reverse_iteratorIT_EERKNS4_IT0_EE, symObjAddr: 0xED40, symBinAddr: 0x10001DFF0, symSize: 0x40 }
  - { offsetInCU: 0x12AD6, offset: 0x3D9A1, size: 0x8, addend: 0x0, symName: __ZNSt3__116__pad_and_outputB8ue170006IcNS_11char_traitsIcEEEENS_19ostreambuf_iteratorIT_T0_EES6_PKS4_S8_S8_RNS_8ios_baseES4_, symObjAddr: 0xF470, symBinAddr: 0x10001E720, symSize: 0x220 }
  - { offsetInCU: 0x12BA7, offset: 0x3DA72, size: 0x8, addend: 0x0, symName: __ZNSt3__19use_facetB8ue170006INS_5ctypeIcEEEERKT_RKNS_6localeE, symObjAddr: 0xF9D0, symBinAddr: 0x10001EC80, symSize: 0x30 }
  - { offsetInCU: 0x13074, offset: 0x3DF3F, size: 0x8, addend: 0x0, symName: __ZNSt3__1neB8ue170006ERKNS_15__hash_iteratorIPNS_11__hash_nodeINS_17__hash_value_typeINS_12basic_stringIcNS_11char_traitsIcEENS_9allocatorIcEEEEbEEPvEEEESF_, symObjAddr: 0xFB10, symBinAddr: 0x10001EDC0, symSize: 0x30 }
  - { offsetInCU: 0x130B1, offset: 0x3DF7C, size: 0x8, addend: 0x0, symName: __ZNSt3__1eqB8ue170006ERKNS_15__hash_iteratorIPNS_11__hash_nodeINS_17__hash_value_typeINS_12basic_stringIcNS_11char_traitsIcEENS_9allocatorIcEEEEbEEPvEEEESF_, symObjAddr: 0xFB40, symBinAddr: 0x10001EDF0, symSize: 0x30 }
  - { offsetInCU: 0x140EB, offset: 0x3EFB6, size: 0x8, addend: 0x0, symName: __ZNSt3__16vectorIP4NodeNS_9allocatorIS2_EEE26__swap_out_circular_bufferERNS_14__split_bufferIS2_RS4_EE, symObjAddr: 0xDF20, symBinAddr: 0x10001D1D0, symSize: 0x120 }
  - { offsetInCU: 0x16609, offset: 0x414D4, size: 0x8, addend: 0x0, symName: __ZN11symbolTable6createEP4Node, symObjAddr: 0x0, symBinAddr: 0x1000140A0, symSize: 0x50 }
  - { offsetInCU: 0x16651, offset: 0x4151C, size: 0x8, addend: 0x0, symName: __Z16typeEnumToString8typeEnum, symObjAddr: 0x70, symBinAddr: 0x1000140F0, symSize: 0x100 }
  - { offsetInCU: 0x1667D, offset: 0x41548, size: 0x8, addend: 0x0, symName: __Z16stringToTypeEnumNSt3__112basic_stringIcNS_11char_traitsIcEENS_9allocatorIcEEEE, symObjAddr: 0x170, symBinAddr: 0x1000141F0, symSize: 0x190 }
  - { offsetInCU: 0x166AB, offset: 0x41576, size: 0x8, addend: 0x0, symName: __ZN11symbolTable6insertENSt3__112basic_stringIcNS0_11char_traitsIcEENS0_9allocatorIcEEEES6_iP4Node, symObjAddr: 0x390, symBinAddr: 0x100014380, symSize: 0x1F0 }
  - { offsetInCU: 0x16747, offset: 0x41612, size: 0x8, addend: 0x0, symName: __ZNSt3__113unordered_mapINS_12basic_stringIcNS_11char_traitsIcEENS_9allocatorIcEEEENS_6vectorIS6_NS4_IS6_EEEENS_4hashIS6_EENS_8equal_toIS6_EENS4_INS_4pairIKS6_S9_EEEEE5beginB8ue170006Ev, symObjAddr: 0x580, symBinAddr: 0x100014570, symSize: 0x30 }
  - { offsetInCU: 0x1676D, offset: 0x41638, size: 0x8, addend: 0x0, symName: __ZNSt3__113unordered_mapINS_12basic_stringIcNS_11char_traitsIcEENS_9allocatorIcEEEENS_6vectorIS6_NS4_IS6_EEEENS_4hashIS6_EENS_8equal_toIS6_EENS4_INS_4pairIKS6_S9_EEEEE3endB8ue170006Ev, symObjAddr: 0x5E0, symBinAddr: 0x1000145D0, symSize: 0x30 }
  - { offsetInCU: 0x16793, offset: 0x4165E, size: 0x8, addend: 0x0, symName: __ZNKSt3__119__hash_map_iteratorINS_15__hash_iteratorIPNS_11__hash_nodeINS_17__hash_value_typeINS_12basic_stringIcNS_11char_traitsIcEENS_9allocatorIcEEEENS_6vectorIS9_NS7_IS9_EEEEEEPvEEEEEptB8ue170006Ev, symObjAddr: 0x720, symBinAddr: 0x100014600, symSize: 0x30 }
  - { offsetInCU: 0x167B9, offset: 0x41684, size: 0x8, addend: 0x0, symName: __ZNSt3__119__hash_map_iteratorINS_15__hash_iteratorIPNS_11__hash_nodeINS_17__hash_value_typeINS_12basic_stringIcNS_11char_traitsIcEENS_9allocatorIcEEEENS_6vectorIS9_NS7_IS9_EEEEEEPvEEEEEppB8ue170006Ev, symObjAddr: 0x750, symBinAddr: 0x100014630, symSize: 0x30 }
  - { offsetInCU: 0x167DF, offset: 0x416AA, size: 0x8, addend: 0x0, symName: __ZNSt3__16vectorINS_12basic_stringIcNS_11char_traitsIcEENS_9allocatorIcEEEENS4_IS6_EEEC1Em, symObjAddr: 0x780, symBinAddr: 0x100014660, symSize: 0x30 }
  - { offsetInCU: 0x1681A, offset: 0x416E5, size: 0x8, addend: 0x0, symName: __ZNSt3__16vectorINS_12basic_stringIcNS_11char_traitsIcEENS_9allocatorIcEEEENS4_IS6_EEEixB8ue170006Em, symObjAddr: 0x7B0, symBinAddr: 0x100014690, symSize: 0x20 }
  - { offsetInCU: 0x16851, offset: 0x4171C, size: 0x8, addend: 0x0, symName: __ZNSt3__112basic_stringIcNS_11char_traitsIcEENS_9allocatorIcEEEaSB8ue170006EPKc, symObjAddr: 0x7D0, symBinAddr: 0x1000146B0, symSize: 0x30 }
  - { offsetInCU: 0x16886, offset: 0x41751, size: 0x8, addend: 0x0, symName: __ZNSt3__113unordered_mapINS_12basic_stringIcNS_11char_traitsIcEENS_9allocatorIcEEEENS_6vectorIS6_NS4_IS6_EEEENS_4hashIS6_EENS_8equal_toIS6_EENS4_INS_4pairIKS6_S9_EEEEEixERSF_, symObjAddr: 0x800, symBinAddr: 0x1000146E0, symSize: 0x70 }
  - { offsetInCU: 0x168BD, offset: 0x41788, size: 0x8, addend: 0x0, symName: __ZNSt3__16vectorINS_12basic_stringIcNS_11char_traitsIcEENS_9allocatorIcEEEENS4_IS6_EEEaSB8ue170006ERKS8_, symObjAddr: 0x870, symBinAddr: 0x100014750, symSize: 0x60 }
  - { offsetInCU: 0x168F4, offset: 0x417BF, size: 0x8, addend: 0x0, symName: __ZNSt3__113unordered_mapINS_12basic_stringIcNS_11char_traitsIcEENS_9allocatorIcEEEEbNS_4hashIS6_EENS_8equal_toIS6_EENS4_INS_4pairIKS6_bEEEEEixERSC_, symObjAddr: 0x8D0, symBinAddr: 0x1000147B0, symSize: 0x70 }
  - { offsetInCU: 0x1692B, offset: 0x417F6, size: 0x8, addend: 0x0, symName: __ZNSt3__16vectorINS_12basic_stringIcNS_11char_traitsIcEENS_9allocatorIcEEEENS4_IS6_EEED1B8ue170006Ev, symObjAddr: 0x940, symBinAddr: 0x100014820, symSize: 0x20 }
  - { offsetInCU: 0x16955, offset: 0x41820, size: 0x8, addend: 0x0, symName: __ZN11symbolTable13insertEnumVarENSt3__112basic_stringIcNS0_11char_traitsIcEENS0_9allocatorIcEEEES6_S6_P4Node, symObjAddr: 0x960, symBinAddr: 0x100014840, symSize: 0x1D0 }
  - { offsetInCU: 0x169F2, offset: 0x418BD, size: 0x8, addend: 0x0, symName: __ZN11symbolTable13updateEnumMapEP4NodeNSt3__112basic_stringIcNS2_11char_traitsIcEENS2_9allocatorIcEEEE, symObjAddr: 0xB30, symBinAddr: 0x100014A10, symSize: 0x40 }
  - { offsetInCU: 0x16A37, offset: 0x41902, size: 0x8, addend: 0x0, symName: __ZNSt3__113unordered_mapINS_12basic_stringIcNS_11char_traitsIcEENS_9allocatorIcEEEEP4NodeNS_4hashIS6_EENS_8equal_toIS6_EENS4_INS_4pairIKS6_S8_EEEEEixERSE_, symObjAddr: 0xB70, symBinAddr: 0x100014A50, symSize: 0x70 }
  - { offsetInCU: 0x16A6E, offset: 0x41939, size: 0x8, addend: 0x0, symName: __ZN11symbolTable17updateFunctionMapENSt3__112basic_stringIcNS0_11char_traitsIcEENS0_9allocatorIcEEEEP11nodeTypeTag, symObjAddr: 0xBE0, symBinAddr: 0x100014AC0, symSize: 0xD0 }
  - { offsetInCU: 0x16AC8, offset: 0x41993, size: 0x8, addend: 0x0, symName: __ZNSt3__113unordered_mapINS_12basic_stringIcNS_11char_traitsIcEENS_9allocatorIcEEEENS_6vectorI8typeEnumNS4_IS8_EEEENS_4hashIS6_EENS_8equal_toIS6_EENS4_INS_4pairIKS6_SA_EEEEEixERSG_, symObjAddr: 0xCB0, symBinAddr: 0x100014B90, symSize: 0x70 }
  - { offsetInCU: 0x16AFF, offset: 0x419CA, size: 0x8, addend: 0x0, symName: __ZNSt3__16vectorI8typeEnumNS_9allocatorIS1_EEEaSB8ue170006ERKS4_, symObjAddr: 0xD20, symBinAddr: 0x100014C00, symSize: 0x60 }
  - { offsetInCU: 0x16B36, offset: 0x41A01, size: 0x8, addend: 0x0, symName: __ZN11symbolTable6lookupENSt3__112basic_stringIcNS0_11char_traitsIcEENS0_9allocatorIcEEEEP4Node, symObjAddr: 0xDC0, symBinAddr: 0x100014C60, symSize: 0x130 }
  - { offsetInCU: 0x16B98, offset: 0x41A63, size: 0x8, addend: 0x0, symName: __ZN11symbolTable9checkTypeENSt3__112basic_stringIcNS0_11char_traitsIcEENS0_9allocatorIcEEEEP4Node, symObjAddr: 0xEF0, symBinAddr: 0x100014D90, symSize: 0x160 }
  - { offsetInCU: 0x16BFF, offset: 0x41ACA, size: 0x8, addend: 0x0, symName: __ZN11symbolTable9checkKindENSt3__112basic_stringIcNS0_11char_traitsIcEENS0_9allocatorIcEEEEP4Node, symObjAddr: 0x1080, symBinAddr: 0x100014EF0, symSize: 0x160 }
  - { offsetInCU: 0x16C61, offset: 0x41B2C, size: 0x8, addend: 0x0, symName: __ZN11symbolTable9checkEnumENSt3__112basic_stringIcNS0_11char_traitsIcEENS0_9allocatorIcEEEES6_P4Node, symObjAddr: 0x11E0, symBinAddr: 0x100015050, symSize: 0xC0 }
  - { offsetInCU: 0x16CE0, offset: 0x41BAB, size: 0x8, addend: 0x0, symName: __ZN11symbolTable11switchScopeEP4Node, symObjAddr: 0x12A0, symBinAddr: 0x100015110, symSize: 0x70 }
  - { offsetInCU: 0x16D24, offset: 0x41BEF, size: 0x8, addend: 0x0, symName: __ZNSt3__16vectorIP4NodeNS_9allocatorIS2_EEE9push_backB8ue170006ERKS2_, symObjAddr: 0x1310, symBinAddr: 0x100015180, symSize: 0x60 }
  - { offsetInCU: 0x16D5B, offset: 0x41C26, size: 0x8, addend: 0x0, symName: __ZN11symbolTable13functionScopeEP4Node, symObjAddr: 0x1370, symBinAddr: 0x1000151E0, symSize: 0x70 }
  - { offsetInCU: 0x16D9F, offset: 0x41C6A, size: 0x8, addend: 0x0, symName: __ZN11symbolTable10switchBackEP4Node, symObjAddr: 0x13E0, symBinAddr: 0x100015250, symSize: 0x20 }
  - { offsetInCU: 0x16DD5, offset: 0x41CA0, size: 0x8, addend: 0x0, symName: __ZN11symbolTable5printEP4Node, symObjAddr: 0x1400, symBinAddr: 0x100015270, symSize: 0x140 }
  - { offsetInCU: 0x16E1C, offset: 0x41CE7, size: 0x8, addend: 0x0, symName: __ZNSt3__114basic_ofstreamIcNS_11char_traitsIcEEEC1Ev, symObjAddr: 0x1540, symBinAddr: 0x1000153B0, symSize: 0xE0 }
  - { offsetInCU: 0x16E48, offset: 0x41D13, size: 0x8, addend: 0x0, symName: __ZN11symbolTable15print_recursiveEP4NodeRNSt3__114basic_ofstreamIcNS2_11char_traitsIcEEEE, symObjAddr: 0x1660, symBinAddr: 0x1000154D0, symSize: 0x190 }
  - { offsetInCU: 0x16EC6, offset: 0x41D91, size: 0x8, addend: 0x0, symName: __ZN11symbolTable9printcoutEP4Node, symObjAddr: 0x17F0, symBinAddr: 0x100015660, symSize: 0x180 }
  - { offsetInCU: 0x16F36, offset: 0x41E01, size: 0x8, addend: 0x0, symName: __ZNSt3__114basic_ofstreamIcNS_11char_traitsIcEEE5closeEv, symObjAddr: 0x1970, symBinAddr: 0x1000157E0, symSize: 0x50 }
  - { offsetInCU: 0x16F63, offset: 0x41E2E, size: 0x8, addend: 0x0, symName: __ZNSt3__114basic_ofstreamIcNS_11char_traitsIcEEED1Ev, symObjAddr: 0x19C0, symBinAddr: 0x100015830, symSize: 0x40 }
  - { offsetInCU: 0x16F90, offset: 0x41E5B, size: 0x8, addend: 0x0, symName: __ZNSt3__113basic_ostreamIcNS_11char_traitsIcEEElsB8ue170006EPFRS3_S4_E, symObjAddr: 0x1A50, symBinAddr: 0x1000158C0, symSize: 0x20 }
  - { offsetInCU: 0x16FC4, offset: 0x41E8F, size: 0x8, addend: 0x0, symName: __ZNKSt3__16vectorIP4NodeNS_9allocatorIS2_EEE4sizeB8ue170006Ev, symObjAddr: 0x1AC0, symBinAddr: 0x100015930, symSize: 0x20 }
  - { offsetInCU: 0x16FEA, offset: 0x41EB5, size: 0x8, addend: 0x0, symName: __ZNSt3__16vectorIP4NodeNS_9allocatorIS2_EEEixB8ue170006Em, symObjAddr: 0x1AE0, symBinAddr: 0x100015950, symSize: 0x20 }
  - { offsetInCU: 0x17021, offset: 0x41EEC, size: 0x8, addend: 0x0, symName: __ZN11symbolTable11checkUnusedEv, symObjAddr: 0x1B00, symBinAddr: 0x100015970, symSize: 0x260 }
  - { offsetInCU: 0x1706F, offset: 0x41F3A, size: 0x8, addend: 0x0, symName: __ZNSt3__113unordered_mapINS_12basic_stringIcNS_11char_traitsIcEENS_9allocatorIcEEEEbNS_4hashIS6_EENS_8equal_toIS6_EENS4_INS_4pairIKS6_bEEEEE5beginB8ue170006Ev, symObjAddr: 0x1D60, symBinAddr: 0x100015BD0, symSize: 0x30 }
  - { offsetInCU: 0x17095, offset: 0x41F60, size: 0x8, addend: 0x0, symName: __ZNSt3__113unordered_mapINS_12basic_stringIcNS_11char_traitsIcEENS_9allocatorIcEEEEbNS_4hashIS6_EENS_8equal_toIS6_EENS4_INS_4pairIKS6_bEEEEE3endB8ue170006Ev, symObjAddr: 0x1DC0, symBinAddr: 0x100015C30, symSize: 0x30 }
  - { offsetInCU: 0x170BB, offset: 0x41F86, size: 0x8, addend: 0x0, symName: __ZNKSt3__119__hash_map_iteratorINS_15__hash_iteratorIPNS_11__hash_nodeINS_17__hash_value_typeINS_12basic_stringIcNS_11char_traitsIcEENS_9allocatorIcEEEEbEEPvEEEEEptB8ue170006Ev, symObjAddr: 0x1DF0, symBinAddr: 0x100015C60, symSize: 0x30 }
  - { offsetInCU: 0x170E1, offset: 0x41FAC, size: 0x8, addend: 0x0, symName: __ZNSt3__119__hash_map_iteratorINS_15__hash_iteratorIPNS_11__hash_nodeINS_17__hash_value_typeINS_12basic_stringIcNS_11char_traitsIcEENS_9allocatorIcEEEEbEEPvEEEEEppB8ue170006Ev, symObjAddr: 0x1E20, symBinAddr: 0x100015C90, symSize: 0x30 }
  - { offsetInCU: 0x17111, offset: 0x41FDC, size: 0x8, addend: 0x0, symName: __ZNSt3__114basic_ofstreamIcNS_11char_traitsIcEEED2Ev, symObjAddr: 0x2560, symBinAddr: 0x100015CC0, symSize: 0x60 }
  - { offsetInCU: 0x1714B, offset: 0x42016, size: 0x8, addend: 0x0, symName: __ZTv0_n24_NSt3__114basic_ofstreamIcNS_11char_traitsIcEEED1Ev, symObjAddr: 0x25C0, symBinAddr: 0x100015D20, symSize: 0x20 }
  - { offsetInCU: 0x17162, offset: 0x4202D, size: 0x8, addend: 0x0, symName: __ZNSt3__112__hash_tableINS_17__hash_value_typeINS_12basic_stringIcNS_11char_traitsIcEENS_9allocatorIcEEEENS_6vectorIS7_NS5_IS7_EEEEEENS_22__unordered_map_hasherIS7_SB_NS_4hashIS7_EENS_8equal_toIS7_EELb1EEENS_21__unordered_map_equalIS7_SB_SG_SE_Lb1EEENS5_ISB_EEE5beginEv, symObjAddr: 0x2730, symBinAddr: 0x100015D40, symSize: 0x30 }
  - { offsetInCU: 0x1718A, offset: 0x42055, size: 0x8, addend: 0x0, symName: __ZNSt3__119__hash_map_iteratorINS_15__hash_iteratorIPNS_11__hash_nodeINS_17__hash_value_typeINS_12basic_stringIcNS_11char_traitsIcEENS_9allocatorIcEEEENS_6vectorIS9_NS7_IS9_EEEEEEPvEEEEEC1B8ue170006ESH_, symObjAddr: 0x2760, symBinAddr: 0x100015D70, symSize: 0x30 }
  - { offsetInCU: 0x171C3, offset: 0x4208E, size: 0x8, addend: 0x0, symName: __ZNSt3__117__compressed_pairINS_16__hash_node_baseIPNS_11__hash_nodeINS_17__hash_value_typeINS_12basic_stringIcNS_11char_traitsIcEENS_9allocatorIcEEEENS_6vectorIS9_NS7_IS9_EEEEEEPvEEEENS7_ISF_EEE5firstB8ue170006Ev, symObjAddr: 0x2790, symBinAddr: 0x100015DA0, symSize: 0x20 }
  - { offsetInCU: 0x171E9, offset: 0x420B4, size: 0x8, addend: 0x0, symName: __ZNSt3__115__hash_iteratorIPNS_11__hash_nodeINS_17__hash_value_typeINS_12basic_stringIcNS_11char_traitsIcEENS_9allocatorIcEEEENS_6vectorIS8_NS6_IS8_EEEEEEPvEEEC1B8ue170006EPNS_16__hash_node_baseISF_EE, symObjAddr: 0x27B0, symBinAddr: 0x100015DC0, symSize: 0x30 }
  - { offsetInCU: 0x17222, offset: 0x420ED, size: 0x8, addend: 0x0, symName: __ZNSt3__122__compressed_pair_elemINS_16__hash_node_baseIPNS_11__hash_nodeINS_17__hash_value_typeINS_12basic_stringIcNS_11char_traitsIcEENS_9allocatorIcEEEENS_6vectorIS9_NS7_IS9_EEEEEEPvEEEELi0ELb0EE5__getB8ue170006Ev, symObjAddr: 0x27E0, symBinAddr: 0x100015DF0, symSize: 0x10 }
  - { offsetInCU: 0x17248, offset: 0x42113, size: 0x8, addend: 0x0, symName: __ZNSt3__115__hash_iteratorIPNS_11__hash_nodeINS_17__hash_value_typeINS_12basic_stringIcNS_11char_traitsIcEENS_9allocatorIcEEEENS_6vectorIS8_NS6_IS8_EEEEEEPvEEEC2B8ue170006EPNS_16__hash_node_baseISF_EE, symObjAddr: 0x27F0, symBinAddr: 0x100015E00, symSize: 0x20 }
  - { offsetInCU: 0x17281, offset: 0x4214C, size: 0x8, addend: 0x0, symName: __ZNSt3__119__hash_map_iteratorINS_15__hash_iteratorIPNS_11__hash_nodeINS_17__hash_value_typeINS_12basic_stringIcNS_11char_traitsIcEENS_9allocatorIcEEEENS_6vectorIS9_NS7_IS9_EEEEEEPvEEEEEC2B8ue170006ESH_, symObjAddr: 0x2810, symBinAddr: 0x100015E20, symSize: 0x20 }
  - { offsetInCU: 0x172BA, offset: 0x42185, size: 0x8, addend: 0x0, symName: __ZNSt3__112__hash_tableINS_17__hash_value_typeINS_12basic_stringIcNS_11char_traitsIcEENS_9allocatorIcEEEENS_6vectorIS7_NS5_IS7_EEEEEENS_22__unordered_map_hasherIS7_SB_NS_4hashIS7_EENS_8equal_toIS7_EELb1EEENS_21__unordered_map_equalIS7_SB_SG_SE_Lb1EEENS5_ISB_EEE3endEv, symObjAddr: 0x2830, symBinAddr: 0x100015E40, symSize: 0x30 }
  - { offsetInCU: 0x172E2, offset: 0x421AD, size: 0x8, addend: 0x0, symName: __ZNSt3__115__hash_iteratorIPNS_11__hash_nodeINS_17__hash_value_typeINS_12basic_stringIcNS_11char_traitsIcEENS_9allocatorIcEEEENS_6vectorIS8_NS6_IS8_EEEEEEPvEEEppB8ue170006Ev, symObjAddr: 0x28C0, symBinAddr: 0x100015ED0, symSize: 0x20 }
  - { offsetInCU: 0x17308, offset: 0x421D3, size: 0x8, addend: 0x0, symName: __ZNSt3__114pointer_traitsIPNS_4pairIKNS_12basic_stringIcNS_11char_traitsIcEENS_9allocatorIcEEEENS_6vectorIS7_NS5_IS7_EEEEEEE10pointer_toB8ue170006ERSC_, symObjAddr: 0x28E0, symBinAddr: 0x100015EF0, symSize: 0x10 }
  - { offsetInCU: 0x1732B, offset: 0x421F6, size: 0x8, addend: 0x0, symName: __ZNKSt3__115__hash_iteratorIPNS_11__hash_nodeINS_17__hash_value_typeINS_12basic_stringIcNS_11char_traitsIcEENS_9allocatorIcEEEENS_6vectorIS8_NS6_IS8_EEEEEEPvEEEptB8ue170006Ev, symObjAddr: 0x28F0, symBinAddr: 0x100015F00, symSize: 0x30 }
  - { offsetInCU: 0x17351, offset: 0x4221C, size: 0x8, addend: 0x0, symName: __ZNSt3__117__hash_value_typeINS_12basic_stringIcNS_11char_traitsIcEENS_9allocatorIcEEEENS_6vectorIS6_NS4_IS6_EEEEE11__get_valueB8ue170006Ev, symObjAddr: 0x2920, symBinAddr: 0x100015F30, symSize: 0x10 }
  - { offsetInCU: 0x17377, offset: 0x42242, size: 0x8, addend: 0x0, symName: __ZNSt3__114pointer_traitsIPNS_17__hash_value_typeINS_12basic_stringIcNS_11char_traitsIcEENS_9allocatorIcEEEENS_6vectorIS7_NS5_IS7_EEEEEEE10pointer_toB8ue170006ERSB_, symObjAddr: 0x2930, symBinAddr: 0x100015F40, symSize: 0x10 }
  - { offsetInCU: 0x1739A, offset: 0x42265, size: 0x8, addend: 0x0, symName: __ZNSt3__116__hash_node_baseIPNS_11__hash_nodeINS_17__hash_value_typeINS_12basic_stringIcNS_11char_traitsIcEENS_9allocatorIcEEEENS_6vectorIS8_NS6_IS8_EEEEEEPvEEE8__upcastB8ue170006Ev, symObjAddr: 0x2940, symBinAddr: 0x100015F50, symSize: 0x20 }
  - { offsetInCU: 0x173C0, offset: 0x4228B, size: 0x8, addend: 0x0, symName: __ZNSt3__114pointer_traitsIPNS_16__hash_node_baseIPNS_11__hash_nodeINS_17__hash_value_typeINS_12basic_stringIcNS_11char_traitsIcEENS_9allocatorIcEEEENS_6vectorIS9_NS7_IS9_EEEEEEPvEEEEE10pointer_toB8ue170006ERSH_, symObjAddr: 0x2960, symBinAddr: 0x100015F70, symSize: 0x10 }
  - { offsetInCU: 0x173E3, offset: 0x422AE, size: 0x8, addend: 0x0, symName: __ZNSt3__16vectorINS_12basic_stringIcNS_11char_traitsIcEENS_9allocatorIcEEEENS4_IS6_EEEC2Em, symObjAddr: 0x2A90, symBinAddr: 0x100015F80, symSize: 0xD0 }
  - { offsetInCU: 0x17434, offset: 0x422FF, size: 0x8, addend: 0x0, symName: __ZNSt3__117__compressed_pairIPNS_12basic_stringIcNS_11char_traitsIcEENS_9allocatorIcEEEENS4_IS6_EEEC1B8ue170006IDnNS_18__default_init_tagEEEOT_OT0_, symObjAddr: 0x2B60, symBinAddr: 0x100016050, symSize: 0x30 }
  - { offsetInCU: 0x1748C, offset: 0x42357, size: 0x8, addend: 0x0, symName: __ZNSt3__16vectorINS_12basic_stringIcNS_11char_traitsIcEENS_9allocatorIcEEEENS4_IS6_EEE16__destroy_vectorC1B8ue170006ERS8_, symObjAddr: 0x2BD0, symBinAddr: 0x1000160C0, symSize: 0x30 }
  - { offsetInCU: 0x174C5, offset: 0x42390, size: 0x8, addend: 0x0, symName: __ZNSt3__16vectorINS_12basic_stringIcNS_11char_traitsIcEENS_9allocatorIcEEEENS4_IS6_EEE11__vallocateB8ue170006Em, symObjAddr: 0x2C00, symBinAddr: 0x1000160F0, symSize: 0xA0 }
  - { offsetInCU: 0x17509, offset: 0x423D4, size: 0x8, addend: 0x0, symName: __ZNSt3__16vectorINS_12basic_stringIcNS_11char_traitsIcEENS_9allocatorIcEEEENS4_IS6_EEE18__construct_at_endEm, symObjAddr: 0x2CA0, symBinAddr: 0x100016190, symSize: 0xC0 }
  - { offsetInCU: 0x1757C, offset: 0x42447, size: 0x8, addend: 0x0, symName: __ZNSt3__128__exception_guard_exceptionsINS_6vectorINS_12basic_stringIcNS_11char_traitsIcEENS_9allocatorIcEEEENS5_IS7_EEE16__destroy_vectorEE10__completeB8ue170006Ev, symObjAddr: 0x2D60, symBinAddr: 0x100016250, symSize: 0x20 }
  - { offsetInCU: 0x175A2, offset: 0x4246D, size: 0x8, addend: 0x0, symName: __ZNSt3__128__exception_guard_exceptionsINS_6vectorINS_12basic_stringIcNS_11char_traitsIcEENS_9allocatorIcEEEENS5_IS7_EEE16__destroy_vectorEED1B8ue170006Ev, symObjAddr: 0x2D80, symBinAddr: 0x100016270, symSize: 0x20 }
  - { offsetInCU: 0x175CC, offset: 0x42497, size: 0x8, addend: 0x0, symName: __ZNSt3__117__compressed_pairIPNS_12basic_stringIcNS_11char_traitsIcEENS_9allocatorIcEEEENS4_IS6_EEEC2B8ue170006IDnNS_18__default_init_tagEEEOT_OT0_, symObjAddr: 0x2DA0, symBinAddr: 0x100016290, symSize: 0x40 }
  - { offsetInCU: 0x17624, offset: 0x424EF, size: 0x8, addend: 0x0, symName: __ZNSt3__122__compressed_pair_elemIPNS_12basic_stringIcNS_11char_traitsIcEENS_9allocatorIcEEEELi0ELb0EEC2B8ue170006IDnvEEOT_, symObjAddr: 0x2DE0, symBinAddr: 0x1000162D0, symSize: 0x20 }
  - { offsetInCU: 0x17666, offset: 0x42531, size: 0x8, addend: 0x0, symName: __ZNSt3__122__compressed_pair_elemINS_9allocatorINS_12basic_stringIcNS_11char_traitsIcEENS1_IcEEEEEELi1ELb1EEC2B8ue170006ENS_18__default_init_tagE, symObjAddr: 0x2E00, symBinAddr: 0x1000162F0, symSize: 0x20 }
  - { offsetInCU: 0x1769B, offset: 0x42566, size: 0x8, addend: 0x0, symName: __ZNSt3__19allocatorINS_12basic_stringIcNS_11char_traitsIcEENS0_IcEEEEEC2B8ue170006Ev, symObjAddr: 0x2E20, symBinAddr: 0x100016310, symSize: 0x20 }
  - { offsetInCU: 0x176C5, offset: 0x42590, size: 0x8, addend: 0x0, symName: __ZNSt3__116__non_trivial_ifILb1ENS_9allocatorINS_12basic_stringIcNS_11char_traitsIcEENS1_IcEEEEEEEC2B8ue170006Ev, symObjAddr: 0x2E40, symBinAddr: 0x100016330, symSize: 0x10 }
  - { offsetInCU: 0x176EF, offset: 0x425BA, size: 0x8, addend: 0x0, symName: __ZNSt3__128__exception_guard_exceptionsINS_6vectorINS_12basic_stringIcNS_11char_traitsIcEENS_9allocatorIcEEEENS5_IS7_EEE16__destroy_vectorEEC1B8ue170006ESA_, symObjAddr: 0x2E50, symBinAddr: 0x100016340, symSize: 0x30 }
  - { offsetInCU: 0x17727, offset: 0x425F2, size: 0x8, addend: 0x0, symName: __ZNSt3__128__exception_guard_exceptionsINS_6vectorINS_12basic_stringIcNS_11char_traitsIcEENS_9allocatorIcEEEENS5_IS7_EEE16__destroy_vectorEEC2B8ue170006ESA_, symObjAddr: 0x2E80, symBinAddr: 0x100016370, symSize: 0x20 }
  - { offsetInCU: 0x1775F, offset: 0x4262A, size: 0x8, addend: 0x0, symName: __ZNSt3__16vectorINS_12basic_stringIcNS_11char_traitsIcEENS_9allocatorIcEEEENS4_IS6_EEE16__destroy_vectorC2B8ue170006ERS8_, symObjAddr: 0x2EA0, symBinAddr: 0x100016390, symSize: 0x20 }
  - { offsetInCU: 0x17798, offset: 0x42663, size: 0x8, addend: 0x0, symName: __ZNKSt3__16vectorINS_12basic_stringIcNS_11char_traitsIcEENS_9allocatorIcEEEENS4_IS6_EEE8max_sizeEv, symObjAddr: 0x2EC0, symBinAddr: 0x1000163B0, symSize: 0x60 }
  - { offsetInCU: 0x177C0, offset: 0x4268B, size: 0x8, addend: 0x0, symName: __ZNKSt3__16vectorINS_12basic_stringIcNS_11char_traitsIcEENS_9allocatorIcEEEENS4_IS6_EEE20__throw_length_errorB8ue170006Ev, symObjAddr: 0x2F20, symBinAddr: 0x100016410, symSize: 0x20 }
  - { offsetInCU: 0x177E6, offset: 0x426B1, size: 0x8, addend: 0x0, symName: __ZNSt3__16vectorINS_12basic_stringIcNS_11char_traitsIcEENS_9allocatorIcEEEENS4_IS6_EEE7__allocB8ue170006Ev, symObjAddr: 0x2F80, symBinAddr: 0x100016470, symSize: 0x20 }
  - { offsetInCU: 0x1780C, offset: 0x426D7, size: 0x8, addend: 0x0, symName: __ZNSt3__16vectorINS_12basic_stringIcNS_11char_traitsIcEENS_9allocatorIcEEEENS4_IS6_EEE9__end_capB8ue170006Ev, symObjAddr: 0x2FA0, symBinAddr: 0x100016490, symSize: 0x20 }
  - { offsetInCU: 0x17832, offset: 0x426FD, size: 0x8, addend: 0x0, symName: __ZNKSt3__16vectorINS_12basic_stringIcNS_11char_traitsIcEENS_9allocatorIcEEEENS4_IS6_EEE14__annotate_newB8ue170006Em, symObjAddr: 0x2FC0, symBinAddr: 0x1000164B0, symSize: 0xA0 }
  - { offsetInCU: 0x17871, offset: 0x4273C, size: 0x8, addend: 0x0, symName: __ZNSt3__116allocator_traitsINS_9allocatorINS_12basic_stringIcNS_11char_traitsIcEENS1_IcEEEEEEE8max_sizeB8ue170006IS7_vEEmRKS7_, symObjAddr: 0x3090, symBinAddr: 0x100016550, symSize: 0x20 }
  - { offsetInCU: 0x1789F, offset: 0x4276A, size: 0x8, addend: 0x0, symName: __ZNKSt3__16vectorINS_12basic_stringIcNS_11char_traitsIcEENS_9allocatorIcEEEENS4_IS6_EEE7__allocB8ue170006Ev, symObjAddr: 0x30B0, symBinAddr: 0x100016570, symSize: 0x20 }
  - { offsetInCU: 0x178C5, offset: 0x42790, size: 0x8, addend: 0x0, symName: __ZNKSt3__19allocatorINS_12basic_stringIcNS_11char_traitsIcEENS0_IcEEEEE8max_sizeB8ue170006Ev, symObjAddr: 0x3160, symBinAddr: 0x100016590, symSize: 0x20 }
  - { offsetInCU: 0x178EB, offset: 0x427B6, size: 0x8, addend: 0x0, symName: __ZNKSt3__117__compressed_pairIPNS_12basic_stringIcNS_11char_traitsIcEENS_9allocatorIcEEEENS4_IS6_EEE6secondB8ue170006Ev, symObjAddr: 0x3180, symBinAddr: 0x1000165B0, symSize: 0x20 }
  - { offsetInCU: 0x17911, offset: 0x427DC, size: 0x8, addend: 0x0, symName: __ZNKSt3__122__compressed_pair_elemINS_9allocatorINS_12basic_stringIcNS_11char_traitsIcEENS1_IcEEEEEELi1ELb1EE5__getB8ue170006Ev, symObjAddr: 0x31A0, symBinAddr: 0x1000165D0, symSize: 0x10 }
  - { offsetInCU: 0x17937, offset: 0x42802, size: 0x8, addend: 0x0, symName: __ZNSt3__19allocatorINS_12basic_stringIcNS_11char_traitsIcEENS0_IcEEEEE8allocateB8ue170006Em, symObjAddr: 0x32A0, symBinAddr: 0x1000165E0, symSize: 0x50 }
  - { offsetInCU: 0x1796B, offset: 0x42836, size: 0x8, addend: 0x0, symName: __ZNSt3__117__compressed_pairIPNS_12basic_stringIcNS_11char_traitsIcEENS_9allocatorIcEEEENS4_IS6_EEE6secondB8ue170006Ev, symObjAddr: 0x3370, symBinAddr: 0x100016630, symSize: 0x20 }
  - { offsetInCU: 0x17991, offset: 0x4285C, size: 0x8, addend: 0x0, symName: __ZNSt3__122__compressed_pair_elemINS_9allocatorINS_12basic_stringIcNS_11char_traitsIcEENS1_IcEEEEEELi1ELb1EE5__getB8ue170006Ev, symObjAddr: 0x3390, symBinAddr: 0x100016650, symSize: 0x10 }
  - { offsetInCU: 0x179B7, offset: 0x42882, size: 0x8, addend: 0x0, symName: __ZNSt3__117__compressed_pairIPNS_12basic_stringIcNS_11char_traitsIcEENS_9allocatorIcEEEENS4_IS6_EEE5firstB8ue170006Ev, symObjAddr: 0x33A0, symBinAddr: 0x100016660, symSize: 0x20 }
  - { offsetInCU: 0x179DD, offset: 0x428A8, size: 0x8, addend: 0x0, symName: __ZNSt3__122__compressed_pair_elemIPNS_12basic_stringIcNS_11char_traitsIcEENS_9allocatorIcEEEELi0ELb0EE5__getB8ue170006Ev, symObjAddr: 0x33C0, symBinAddr: 0x100016680, symSize: 0x10 }
  - { offsetInCU: 0x17A03, offset: 0x428CE, size: 0x8, addend: 0x0, symName: __ZNKSt3__16vectorINS_12basic_stringIcNS_11char_traitsIcEENS_9allocatorIcEEEENS4_IS6_EEE31__annotate_contiguous_containerB8ue170006EPKvSA_SA_SA_, symObjAddr: 0x33D0, symBinAddr: 0x100016690, symSize: 0x20 }
  - { offsetInCU: 0x17A55, offset: 0x42920, size: 0x8, addend: 0x0, symName: __ZNKSt3__16vectorINS_12basic_stringIcNS_11char_traitsIcEENS_9allocatorIcEEEENS4_IS6_EEE4dataB8ue170006Ev, symObjAddr: 0x33F0, symBinAddr: 0x1000166B0, symSize: 0x20 }
  - { offsetInCU: 0x17A7B, offset: 0x42946, size: 0x8, addend: 0x0, symName: __ZNKSt3__16vectorINS_12basic_stringIcNS_11char_traitsIcEENS_9allocatorIcEEEENS4_IS6_EEE8capacityB8ue170006Ev, symObjAddr: 0x3410, symBinAddr: 0x1000166D0, symSize: 0x40 }
  - { offsetInCU: 0x17AA1, offset: 0x4296C, size: 0x8, addend: 0x0, symName: __ZNKSt3__16vectorINS_12basic_stringIcNS_11char_traitsIcEENS_9allocatorIcEEEENS4_IS6_EEE9__end_capB8ue170006Ev, symObjAddr: 0x3460, symBinAddr: 0x100016720, symSize: 0x20 }
  - { offsetInCU: 0x17AC7, offset: 0x42992, size: 0x8, addend: 0x0, symName: __ZNKSt3__117__compressed_pairIPNS_12basic_stringIcNS_11char_traitsIcEENS_9allocatorIcEEEENS4_IS6_EEE5firstB8ue170006Ev, symObjAddr: 0x3480, symBinAddr: 0x100016740, symSize: 0x20 }
  - { offsetInCU: 0x17AED, offset: 0x429B8, size: 0x8, addend: 0x0, symName: __ZNKSt3__122__compressed_pair_elemIPNS_12basic_stringIcNS_11char_traitsIcEENS_9allocatorIcEEEELi0ELb0EE5__getB8ue170006Ev, symObjAddr: 0x34A0, symBinAddr: 0x100016760, symSize: 0x10 }
  - { offsetInCU: 0x17B2C, offset: 0x429F7, size: 0x8, addend: 0x0, symName: __ZNSt3__16vectorINS_12basic_stringIcNS_11char_traitsIcEENS_9allocatorIcEEEENS4_IS6_EEE21_ConstructTransactionC1B8ue170006ERS8_m, symObjAddr: 0x34B0, symBinAddr: 0x100016770, symSize: 0x30 }
  - { offsetInCU: 0x17B74, offset: 0x42A3F, size: 0x8, addend: 0x0, symName: __ZNSt3__116allocator_traitsINS_9allocatorINS_12basic_stringIcNS_11char_traitsIcEENS1_IcEEEEEEE9constructB8ue170006IS6_JEvEEvRS7_PT_DpOT0_, symObjAddr: 0x34E0, symBinAddr: 0x1000167A0, symSize: 0x30 }
  - { offsetInCU: 0x17BB6, offset: 0x42A81, size: 0x8, addend: 0x0, symName: __ZNSt3__16vectorINS_12basic_stringIcNS_11char_traitsIcEENS_9allocatorIcEEEENS4_IS6_EEE21_ConstructTransactionD1B8ue170006Ev, symObjAddr: 0x3510, symBinAddr: 0x1000167D0, symSize: 0x20 }
  - { offsetInCU: 0x17BE0, offset: 0x42AAB, size: 0x8, addend: 0x0, symName: __ZNSt3__16vectorINS_12basic_stringIcNS_11char_traitsIcEENS_9allocatorIcEEEENS4_IS6_EEE21_ConstructTransactionC2B8ue170006ERS8_m, symObjAddr: 0x3530, symBinAddr: 0x1000167F0, symSize: 0x40 }
  - { offsetInCU: 0x17C28, offset: 0x42AF3, size: 0x8, addend: 0x0, symName: __ZNSt3__19allocatorINS_12basic_stringIcNS_11char_traitsIcEENS0_IcEEEEE9constructB8ue170006IS5_JEEEvPT_DpOT0_, symObjAddr: 0x3570, symBinAddr: 0x100016830, symSize: 0x20 }
  - { offsetInCU: 0x17C6A, offset: 0x42B35, size: 0x8, addend: 0x0, symName: __ZNSt3__112basic_stringIcNS_11char_traitsIcEENS_9allocatorIcEEEC1B8ue170006Ev, symObjAddr: 0x3590, symBinAddr: 0x100016850, symSize: 0x20 }
  - { offsetInCU: 0x17C94, offset: 0x42B5F, size: 0x8, addend: 0x0, symName: __ZNSt3__112basic_stringIcNS_11char_traitsIcEENS_9allocatorIcEEEC2B8ue170006Ev, symObjAddr: 0x35B0, symBinAddr: 0x100016870, symSize: 0x50 }
  - { offsetInCU: 0x17CBE, offset: 0x42B89, size: 0x8, addend: 0x0, symName: __ZNSt3__16vectorINS_12basic_stringIcNS_11char_traitsIcEENS_9allocatorIcEEEENS4_IS6_EEE21_ConstructTransactionD2B8ue170006Ev, symObjAddr: 0x3740, symBinAddr: 0x1000168C0, symSize: 0x20 }
  - { offsetInCU: 0x17CE8, offset: 0x42BB3, size: 0x8, addend: 0x0, symName: __ZNSt3__128__exception_guard_exceptionsINS_6vectorINS_12basic_stringIcNS_11char_traitsIcEENS_9allocatorIcEEEENS5_IS7_EEE16__destroy_vectorEED2B8ue170006Ev, symObjAddr: 0x3760, symBinAddr: 0x1000168E0, symSize: 0x40 }
  - { offsetInCU: 0x17D12, offset: 0x42BDD, size: 0x8, addend: 0x0, symName: __ZNSt3__16vectorINS_12basic_stringIcNS_11char_traitsIcEENS_9allocatorIcEEEENS4_IS6_EEE16__destroy_vectorclB8ue170006Ev, symObjAddr: 0x37A0, symBinAddr: 0x100016920, symSize: 0x80 }
  - { offsetInCU: 0x17D38, offset: 0x42C03, size: 0x8, addend: 0x0, symName: __ZNSt3__16vectorINS_12basic_stringIcNS_11char_traitsIcEENS_9allocatorIcEEEENS4_IS6_EEE7__clearB8ue170006Ev, symObjAddr: 0x3820, symBinAddr: 0x1000169A0, symSize: 0x20 }
  - { offsetInCU: 0x17D5E, offset: 0x42C29, size: 0x8, addend: 0x0, symName: __ZNKSt3__16vectorINS_12basic_stringIcNS_11char_traitsIcEENS_9allocatorIcEEEENS4_IS6_EEE17__annotate_deleteB8ue170006Ev, symObjAddr: 0x3840, symBinAddr: 0x1000169C0, symSize: 0xB0 }
  - { offsetInCU: 0x17D84, offset: 0x42C4F, size: 0x8, addend: 0x0, symName: __ZNSt3__116allocator_traitsINS_9allocatorINS_12basic_stringIcNS_11char_traitsIcEENS1_IcEEEEEEE10deallocateB8ue170006ERS7_PS6_m, symObjAddr: 0x38F0, symBinAddr: 0x100016A70, symSize: 0x30 }
  - { offsetInCU: 0x17DC6, offset: 0x42C91, size: 0x8, addend: 0x0, symName: __ZNSt3__16vectorINS_12basic_stringIcNS_11char_traitsIcEENS_9allocatorIcEEEENS4_IS6_EEE22__base_destruct_at_endB8ue170006EPS6_, symObjAddr: 0x3920, symBinAddr: 0x100016AA0, symSize: 0x80 }
  - { offsetInCU: 0x17E0A, offset: 0x42CD5, size: 0x8, addend: 0x0, symName: __ZNSt3__116allocator_traitsINS_9allocatorINS_12basic_stringIcNS_11char_traitsIcEENS1_IcEEEEEEE7destroyB8ue170006IS6_vEEvRS7_PT_, symObjAddr: 0x39A0, symBinAddr: 0x100016B20, symSize: 0x30 }
  - { offsetInCU: 0x17E47, offset: 0x42D12, size: 0x8, addend: 0x0, symName: __ZNSt3__19allocatorINS_12basic_stringIcNS_11char_traitsIcEENS0_IcEEEEE7destroyB8ue170006EPS5_, symObjAddr: 0x39D0, symBinAddr: 0x100016B50, symSize: 0x20 }
  - { offsetInCU: 0x17E7B, offset: 0x42D46, size: 0x8, addend: 0x0, symName: __ZNKSt3__16vectorINS_12basic_stringIcNS_11char_traitsIcEENS_9allocatorIcEEEENS4_IS6_EEE4sizeB8ue170006Ev, symObjAddr: 0x39F0, symBinAddr: 0x100016B70, symSize: 0x30 }
  - { offsetInCU: 0x17EA1, offset: 0x42D6C, size: 0x8, addend: 0x0, symName: __ZNSt3__19allocatorINS_12basic_stringIcNS_11char_traitsIcEENS0_IcEEEEE10deallocateB8ue170006EPS5_m, symObjAddr: 0x3A20, symBinAddr: 0x100016BA0, symSize: 0x50 }
  - { offsetInCU: 0x17EE3, offset: 0x42DAE, size: 0x8, addend: 0x0, symName: __ZNSt3__16vectorINS_12basic_stringIcNS_11char_traitsIcEENS_9allocatorIcEEEENS4_IS6_EEED2B8ue170006Ev, symObjAddr: 0x3AE0, symBinAddr: 0x100016BF0, symSize: 0x40 }
  - { offsetInCU: 0x17F1C, offset: 0x42DE7, size: 0x8, addend: 0x0, symName: __ZNSt3__112__hash_tableINS_17__hash_value_typeINS_12basic_stringIcNS_11char_traitsIcEENS_9allocatorIcEEEENS_6vectorIS7_NS5_IS7_EEEEEENS_22__unordered_map_hasherIS7_SB_NS_4hashIS7_EENS_8equal_toIS7_EELb1EEENS_21__unordered_map_equalIS7_SB_SG_SE_Lb1EEENS5_ISB_EEE25__emplace_unique_key_argsIS7_JRKNS_21piecewise_construct_tENS_5tupleIJRKS7_EEENSQ_IJEEEEEENS_4pairINS_15__hash_iteratorIPNS_11__hash_nodeISB_PvEEEEbEERKT_DpOT0_, symObjAddr: 0x3B20, symBinAddr: 0x100016C30, symSize: 0x660 }
  - { offsetInCU: 0x18025, offset: 0x42EF0, size: 0x8, addend: 0x0, symName: __ZNSt3__112__hash_tableINS_17__hash_value_typeINS_12basic_stringIcNS_11char_traitsIcEENS_9allocatorIcEEEENS_6vectorIS7_NS5_IS7_EEEEEENS_22__unordered_map_hasherIS7_SB_NS_4hashIS7_EENS_8equal_toIS7_EELb1EEENS_21__unordered_map_equalIS7_SB_SG_SE_Lb1EEENS5_ISB_EEE13hash_functionB8ue170006Ev, symObjAddr: 0x41C0, symBinAddr: 0x1000172C0, symSize: 0x20 }
  - { offsetInCU: 0x1804B, offset: 0x42F16, size: 0x8, addend: 0x0, symName: __ZNKSt3__122__unordered_map_hasherINS_12basic_stringIcNS_11char_traitsIcEENS_9allocatorIcEEEENS_17__hash_value_typeIS6_NS_6vectorIS6_NS4_IS6_EEEEEENS_4hashIS6_EENS_8equal_toIS6_EELb1EEclB8ue170006ERKS6_, symObjAddr: 0x41E0, symBinAddr: 0x1000172E0, symSize: 0x30 }
  - { offsetInCU: 0x18080, offset: 0x42F4B, size: 0x8, addend: 0x0, symName: __ZNKSt3__112__hash_tableINS_17__hash_value_typeINS_12basic_stringIcNS_11char_traitsIcEENS_9allocatorIcEEEENS_6vectorIS7_NS5_IS7_EEEEEENS_22__unordered_map_hasherIS7_SB_NS_4hashIS7_EENS_8equal_toIS7_EELb1EEENS_21__unordered_map_equalIS7_SB_SG_SE_Lb1EEENS5_ISB_EEE12bucket_countB8ue170006Ev, symObjAddr: 0x4210, symBinAddr: 0x100017310, symSize: 0x30 }
  - { offsetInCU: 0x180A6, offset: 0x42F71, size: 0x8, addend: 0x0, symName: __ZNKSt3__110unique_ptrIA_PNS_16__hash_node_baseIPNS_11__hash_nodeINS_17__hash_value_typeINS_12basic_stringIcNS_11char_traitsIcEENS_9allocatorIcEEEENS_6vectorIS9_NS7_IS9_EEEEEEPvEEEENS_25__bucket_list_deallocatorINS7_ISI_EEEEEixB8ue170006Em, symObjAddr: 0x42C0, symBinAddr: 0x100017340, symSize: 0x30 }
  - { offsetInCU: 0x180DB, offset: 0x42FA6, size: 0x8, addend: 0x0, symName: __ZNKSt3__116__hash_node_baseIPNS_11__hash_nodeINS_17__hash_value_typeINS_12basic_stringIcNS_11char_traitsIcEENS_9allocatorIcEEEENS_6vectorIS8_NS6_IS8_EEEEEEPvEEE6__hashB8ue170006Ev, symObjAddr: 0x42F0, symBinAddr: 0x100017370, symSize: 0x20 }
  - { offsetInCU: 0x18101, offset: 0x42FCC, size: 0x8, addend: 0x0, symName: __ZNSt3__112__hash_tableINS_17__hash_value_typeINS_12basic_stringIcNS_11char_traitsIcEENS_9allocatorIcEEEENS_6vectorIS7_NS5_IS7_EEEEEENS_22__unordered_map_hasherIS7_SB_NS_4hashIS7_EENS_8equal_toIS7_EELb1EEENS_21__unordered_map_equalIS7_SB_SG_SE_Lb1EEENS5_ISB_EEE6key_eqB8ue170006Ev, symObjAddr: 0x4310, symBinAddr: 0x100017390, symSize: 0x20 }
  - { offsetInCU: 0x18127, offset: 0x42FF2, size: 0x8, addend: 0x0, symName: __ZNKSt3__121__unordered_map_equalINS_12basic_stringIcNS_11char_traitsIcEENS_9allocatorIcEEEENS_17__hash_value_typeIS6_NS_6vectorIS6_NS4_IS6_EEEEEENS_8equal_toIS6_EENS_4hashIS6_EELb1EEclB8ue170006ERKSB_RKS6_, symObjAddr: 0x4330, symBinAddr: 0x1000173B0, symSize: 0x40 }
  - { offsetInCU: 0x1816B, offset: 0x43036, size: 0x8, addend: 0x0, symName: __ZNSt3__112__hash_tableINS_17__hash_value_typeINS_12basic_stringIcNS_11char_traitsIcEENS_9allocatorIcEEEENS_6vectorIS7_NS5_IS7_EEEEEENS_22__unordered_map_hasherIS7_SB_NS_4hashIS7_EENS_8equal_toIS7_EELb1EEENS_21__unordered_map_equalIS7_SB_SG_SE_Lb1EEENS5_ISB_EEE21__construct_node_hashIRKNS_21piecewise_construct_tEJNS_5tupleIJRKS7_EEENSQ_IJEEEEEENS_10unique_ptrINS_11__hash_nodeISB_PvEENS_22__hash_node_destructorINS5_ISY_EEEEEEmOT_DpOT0_, symObjAddr: 0x4370, symBinAddr: 0x1000173F0, symSize: 0x150 }
  - { offsetInCU: 0x18207, offset: 0x430D2, size: 0x8, addend: 0x0, symName: __ZNSt3__112__hash_tableINS_17__hash_value_typeINS_12basic_stringIcNS_11char_traitsIcEENS_9allocatorIcEEEENS_6vectorIS7_NS5_IS7_EEEEEENS_22__unordered_map_hasherIS7_SB_NS_4hashIS7_EENS_8equal_toIS7_EELb1EEENS_21__unordered_map_equalIS7_SB_SG_SE_Lb1EEENS5_ISB_EEE4sizeB8ue170006Ev, symObjAddr: 0x44C0, symBinAddr: 0x100017540, symSize: 0x20 }
  - { offsetInCU: 0x1822D, offset: 0x430F8, size: 0x8, addend: 0x0, symName: __ZNSt3__112__hash_tableINS_17__hash_value_typeINS_12basic_stringIcNS_11char_traitsIcEENS_9allocatorIcEEEENS_6vectorIS7_NS5_IS7_EEEEEENS_22__unordered_map_hasherIS7_SB_NS_4hashIS7_EENS_8equal_toIS7_EELb1EEENS_21__unordered_map_equalIS7_SB_SG_SE_Lb1EEENS5_ISB_EEE15max_load_factorB8ue170006Ev, symObjAddr: 0x44E0, symBinAddr: 0x100017560, symSize: 0x20 }
  - { offsetInCU: 0x18253, offset: 0x4311E, size: 0x8, addend: 0x0, symName: __ZNSt3__112__hash_tableINS_17__hash_value_typeINS_12basic_stringIcNS_11char_traitsIcEENS_9allocatorIcEEEENS_6vectorIS7_NS5_IS7_EEEEEENS_22__unordered_map_hasherIS7_SB_NS_4hashIS7_EENS_8equal_toIS7_EELb1EEENS_21__unordered_map_equalIS7_SB_SG_SE_Lb1EEENS5_ISB_EEE15__rehash_uniqueB8ue170006Em, symObjAddr: 0x4500, symBinAddr: 0x100017580, symSize: 0x30 }
  - { offsetInCU: 0x18288, offset: 0x43153, size: 0x8, addend: 0x0, symName: __ZNSt3__116__hash_node_baseIPNS_11__hash_nodeINS_17__hash_value_typeINS_12basic_stringIcNS_11char_traitsIcEENS_9allocatorIcEEEENS_6vectorIS8_NS6_IS8_EEEEEEPvEEE5__ptrB8ue170006Ev, symObjAddr: 0x45C0, symBinAddr: 0x1000175B0, symSize: 0x20 }
  - { offsetInCU: 0x182AE, offset: 0x43179, size: 0x8, addend: 0x0, symName: __ZNKSt3__110unique_ptrINS_11__hash_nodeINS_17__hash_value_typeINS_12basic_stringIcNS_11char_traitsIcEENS_9allocatorIcEEEENS_6vectorIS8_NS6_IS8_EEEEEEPvEENS_22__hash_node_destructorINS6_ISE_EEEEEptB8ue170006Ev, symObjAddr: 0x45E0, symBinAddr: 0x1000175D0, symSize: 0x20 }
  - { offsetInCU: 0x182D4, offset: 0x4319F, size: 0x8, addend: 0x0, symName: __ZNKSt3__110unique_ptrINS_11__hash_nodeINS_17__hash_value_typeINS_12basic_stringIcNS_11char_traitsIcEENS_9allocatorIcEEEENS_6vectorIS8_NS6_IS8_EEEEEEPvEENS_22__hash_node_destructorINS6_ISE_EEEEE3getB8ue170006Ev, symObjAddr: 0x4600, symBinAddr: 0x1000175F0, symSize: 0x20 }
  - { offsetInCU: 0x182FA, offset: 0x431C5, size: 0x8, addend: 0x0, symName: __ZNSt3__110unique_ptrINS_11__hash_nodeINS_17__hash_value_typeINS_12basic_stringIcNS_11char_traitsIcEENS_9allocatorIcEEEENS_6vectorIS8_NS6_IS8_EEEEEEPvEENS_22__hash_node_destructorINS6_ISE_EEEEE7releaseB8ue170006Ev, symObjAddr: 0x4620, symBinAddr: 0x100017610, symSize: 0x40 }
  - { offsetInCU: 0x1832F, offset: 0x431FA, size: 0x8, addend: 0x0, symName: __ZNSt3__110unique_ptrINS_11__hash_nodeINS_17__hash_value_typeINS_12basic_stringIcNS_11char_traitsIcEENS_9allocatorIcEEEENS_6vectorIS8_NS6_IS8_EEEEEEPvEENS_22__hash_node_destructorINS6_ISE_EEEEED1B8ue170006Ev, symObjAddr: 0x4660, symBinAddr: 0x100017650, symSize: 0x20 }
  - { offsetInCU: 0x18363, offset: 0x4322E, size: 0x8, addend: 0x0, symName: __ZNSt3__14pairINS_15__hash_iteratorIPNS_11__hash_nodeINS_17__hash_value_typeINS_12basic_stringIcNS_11char_traitsIcEENS_9allocatorIcEEEENS_6vectorIS9_NS7_IS9_EEEEEEPvEEEEbEC1B8ue170006ISH_RbLSE_0EEEOT_OT0_, symObjAddr: 0x4680, symBinAddr: 0x100017670, symSize: 0x30 }
  - { offsetInCU: 0x183C1, offset: 0x4328C, size: 0x8, addend: 0x0, symName: __ZNSt3__117__compressed_pairImNS_22__unordered_map_hasherINS_12basic_stringIcNS_11char_traitsIcEENS_9allocatorIcEEEENS_17__hash_value_typeIS7_NS_6vectorIS7_NS5_IS7_EEEEEENS_4hashIS7_EENS_8equal_toIS7_EELb1EEEE6secondB8ue170006Ev, symObjAddr: 0x46B0, symBinAddr: 0x1000176A0, symSize: 0x20 }
  - { offsetInCU: 0x183E7, offset: 0x432B2, size: 0x8, addend: 0x0, symName: __ZNSt3__122__compressed_pair_elemINS_22__unordered_map_hasherINS_12basic_stringIcNS_11char_traitsIcEENS_9allocatorIcEEEENS_17__hash_value_typeIS7_NS_6vectorIS7_NS5_IS7_EEEEEENS_4hashIS7_EENS_8equal_toIS7_EELb1EEELi1ELb1EE5__getB8ue170006Ev, symObjAddr: 0x46D0, symBinAddr: 0x1000176C0, symSize: 0x10 }
  - { offsetInCU: 0x1840D, offset: 0x432D8, size: 0x8, addend: 0x0, symName: __ZNKSt3__110unique_ptrIA_PNS_16__hash_node_baseIPNS_11__hash_nodeINS_17__hash_value_typeINS_12basic_stringIcNS_11char_traitsIcEENS_9allocatorIcEEEENS_6vectorIS9_NS7_IS9_EEEEEEPvEEEENS_25__bucket_list_deallocatorINS7_ISI_EEEEE11get_deleterB8ue170006Ev, symObjAddr: 0x53D0, symBinAddr: 0x1000176D0, symSize: 0x20 }
  - { offsetInCU: 0x18433, offset: 0x432FE, size: 0x8, addend: 0x0, symName: __ZNKSt3__125__bucket_list_deallocatorINS_9allocatorIPNS_16__hash_node_baseIPNS_11__hash_nodeINS_17__hash_value_typeINS_12basic_stringIcNS_11char_traitsIcEENS1_IcEEEENS_6vectorIS9_NS1_IS9_EEEEEEPvEEEEEEE4sizeB8ue170006Ev, symObjAddr: 0x53F0, symBinAddr: 0x1000176F0, symSize: 0x20 }
  - { offsetInCU: 0x18459, offset: 0x43324, size: 0x8, addend: 0x0, symName: __ZNKSt3__117__compressed_pairIPPNS_16__hash_node_baseIPNS_11__hash_nodeINS_17__hash_value_typeINS_12basic_stringIcNS_11char_traitsIcEENS_9allocatorIcEEEENS_6vectorIS9_NS7_IS9_EEEEEEPvEEEENS_25__bucket_list_deallocatorINS7_ISI_EEEEE6secondB8ue170006Ev, symObjAddr: 0x5410, symBinAddr: 0x100017710, symSize: 0x20 }
  - { offsetInCU: 0x1847F, offset: 0x4334A, size: 0x8, addend: 0x0, symName: __ZNKSt3__122__compressed_pair_elemINS_25__bucket_list_deallocatorINS_9allocatorIPNS_16__hash_node_baseIPNS_11__hash_nodeINS_17__hash_value_typeINS_12basic_stringIcNS_11char_traitsIcEENS2_IcEEEENS_6vectorISA_NS2_ISA_EEEEEEPvEEEEEEEELi1ELb0EE5__getB8ue170006Ev, symObjAddr: 0x5430, symBinAddr: 0x100017730, symSize: 0x10 }
  - { offsetInCU: 0x184A5, offset: 0x43370, size: 0x8, addend: 0x0, symName: __ZNKSt3__117__compressed_pairImNS_9allocatorIPNS_16__hash_node_baseIPNS_11__hash_nodeINS_17__hash_value_typeINS_12basic_stringIcNS_11char_traitsIcEENS1_IcEEEENS_6vectorIS9_NS1_IS9_EEEEEEPvEEEEEEE5firstB8ue170006Ev, symObjAddr: 0x5440, symBinAddr: 0x100017740, symSize: 0x20 }
  - { offsetInCU: 0x184CB, offset: 0x43396, size: 0x8, addend: 0x0, symName: __ZNKSt3__117__compressed_pairIPPNS_16__hash_node_baseIPNS_11__hash_nodeINS_17__hash_value_typeINS_12basic_stringIcNS_11char_traitsIcEENS_9allocatorIcEEEENS_6vectorIS9_NS7_IS9_EEEEEEPvEEEENS_25__bucket_list_deallocatorINS7_ISI_EEEEE5firstB8ue170006Ev, symObjAddr: 0x5470, symBinAddr: 0x100017760, symSize: 0x20 }
  - { offsetInCU: 0x184F1, offset: 0x433BC, size: 0x8, addend: 0x0, symName: __ZNKSt3__122__compressed_pair_elemIPPNS_16__hash_node_baseIPNS_11__hash_nodeINS_17__hash_value_typeINS_12basic_stringIcNS_11char_traitsIcEENS_9allocatorIcEEEENS_6vectorIS9_NS7_IS9_EEEEEEPvEEEELi0ELb0EE5__getB8ue170006Ev, symObjAddr: 0x5490, symBinAddr: 0x100017780, symSize: 0x10 }
  - { offsetInCU: 0x18517, offset: 0x433E2, size: 0x8, addend: 0x0, symName: __ZNSt3__117__compressed_pairIfNS_21__unordered_map_equalINS_12basic_stringIcNS_11char_traitsIcEENS_9allocatorIcEEEENS_17__hash_value_typeIS7_NS_6vectorIS7_NS5_IS7_EEEEEENS_8equal_toIS7_EENS_4hashIS7_EELb1EEEE6secondB8ue170006Ev, symObjAddr: 0x54A0, symBinAddr: 0x100017790, symSize: 0x20 }
  - { offsetInCU: 0x1853D, offset: 0x43408, size: 0x8, addend: 0x0, symName: __ZNSt3__122__compressed_pair_elemINS_21__unordered_map_equalINS_12basic_stringIcNS_11char_traitsIcEENS_9allocatorIcEEEENS_17__hash_value_typeIS7_NS_6vectorIS7_NS5_IS7_EEEEEENS_8equal_toIS7_EENS_4hashIS7_EELb1EEELi1ELb1EE5__getB8ue170006Ev, symObjAddr: 0x54C0, symBinAddr: 0x1000177B0, symSize: 0x10 }
  - { offsetInCU: 0x18563, offset: 0x4342E, size: 0x8, addend: 0x0, symName: __ZNKSt3__117__hash_value_typeINS_12basic_stringIcNS_11char_traitsIcEENS_9allocatorIcEEEENS_6vectorIS6_NS4_IS6_EEEEE11__get_valueB8ue170006Ev, symObjAddr: 0x5500, symBinAddr: 0x1000177C0, symSize: 0x10 }
  - { offsetInCU: 0x18589, offset: 0x43454, size: 0x8, addend: 0x0, symName: __ZNSt3__112__hash_tableINS_17__hash_value_typeINS_12basic_stringIcNS_11char_traitsIcEENS_9allocatorIcEEEENS_6vectorIS7_NS5_IS7_EEEEEENS_22__unordered_map_hasherIS7_SB_NS_4hashIS7_EENS_8equal_toIS7_EELb1EEENS_21__unordered_map_equalIS7_SB_SG_SE_Lb1EEENS5_ISB_EEE12__node_allocB8ue170006Ev, symObjAddr: 0x5510, symBinAddr: 0x1000177D0, symSize: 0x20 }
  - { offsetInCU: 0x185AF, offset: 0x4347A, size: 0x8, addend: 0x0, symName: __ZNSt3__116allocator_traitsINS_9allocatorINS_11__hash_nodeINS_17__hash_value_typeINS_12basic_stringIcNS_11char_traitsIcEENS1_IcEEEENS_6vectorIS8_NS1_IS8_EEEEEEPvEEEEE8allocateB8ue170006ERSF_m, symObjAddr: 0x5530, symBinAddr: 0x1000177F0, symSize: 0x30 }
  - { offsetInCU: 0x185E2, offset: 0x434AD, size: 0x8, addend: 0x0, symName: __ZNSt3__122__hash_node_destructorINS_9allocatorINS_11__hash_nodeINS_17__hash_value_typeINS_12basic_stringIcNS_11char_traitsIcEENS1_IcEEEENS_6vectorIS8_NS1_IS8_EEEEEEPvEEEEEC1B8ue170006ERSF_b, symObjAddr: 0x5560, symBinAddr: 0x100017820, symSize: 0x40 }
  - { offsetInCU: 0x1862F, offset: 0x434FA, size: 0x8, addend: 0x0, symName: __ZNSt3__110unique_ptrINS_11__hash_nodeINS_17__hash_value_typeINS_12basic_stringIcNS_11char_traitsIcEENS_9allocatorIcEEEENS_6vectorIS8_NS6_IS8_EEEEEEPvEENS_22__hash_node_destructorINS6_ISE_EEEEEC1B8ue170006ILb1EvEEPSE_NS_16__dependent_typeINS_27__unique_ptr_deleter_sfinaeISH_EEXT_EE20__good_rval_ref_typeE, symObjAddr: 0x55A0, symBinAddr: 0x100017860, symSize: 0x30 }
  - { offsetInCU: 0x18680, offset: 0x4354B, size: 0x8, addend: 0x0, symName: __ZNSt3__116allocator_traitsINS_9allocatorINS_11__hash_nodeINS_17__hash_value_typeINS_12basic_stringIcNS_11char_traitsIcEENS1_IcEEEENS_6vectorIS8_NS1_IS8_EEEEEEPvEEEEE9constructB8ue170006INS_4pairIKS8_SB_EEJRKNS_21piecewise_construct_tENS_5tupleIJRSJ_EEENSO_IJEEEEvEEvRSF_PT_DpOT0_, symObjAddr: 0x55D0, symBinAddr: 0x100017890, symSize: 0x40 }
  - { offsetInCU: 0x186FF, offset: 0x435CA, size: 0x8, addend: 0x0, symName: __ZNSt3__122__hash_key_value_typesINS_17__hash_value_typeINS_12basic_stringIcNS_11char_traitsIcEENS_9allocatorIcEEEENS_6vectorIS7_NS5_IS7_EEEEEEE9__get_ptrB8ue170006ERSB_, symObjAddr: 0x5610, symBinAddr: 0x1000178D0, symSize: 0x20 }
  - { offsetInCU: 0x18722, offset: 0x435ED, size: 0x8, addend: 0x0, symName: __ZNSt3__110unique_ptrINS_11__hash_nodeINS_17__hash_value_typeINS_12basic_stringIcNS_11char_traitsIcEENS_9allocatorIcEEEENS_6vectorIS8_NS6_IS8_EEEEEEPvEENS_22__hash_node_destructorINS6_ISE_EEEEE11get_deleterB8ue170006Ev, symObjAddr: 0x5630, symBinAddr: 0x1000178F0, symSize: 0x20 }
  - { offsetInCU: 0x18748, offset: 0x43613, size: 0x8, addend: 0x0, symName: __ZNSt3__117__compressed_pairINS_16__hash_node_baseIPNS_11__hash_nodeINS_17__hash_value_typeINS_12basic_stringIcNS_11char_traitsIcEENS_9allocatorIcEEEENS_6vectorIS9_NS7_IS9_EEEEEEPvEEEENS7_ISF_EEE6secondB8ue170006Ev, symObjAddr: 0x5650, symBinAddr: 0x100017910, symSize: 0x20 }
  - { offsetInCU: 0x1876E, offset: 0x43639, size: 0x8, addend: 0x0, symName: __ZNSt3__122__compressed_pair_elemINS_9allocatorINS_11__hash_nodeINS_17__hash_value_typeINS_12basic_stringIcNS_11char_traitsIcEENS1_IcEEEENS_6vectorIS8_NS1_IS8_EEEEEEPvEEEELi1ELb1EE5__getB8ue170006Ev, symObjAddr: 0x5670, symBinAddr: 0x100017930, symSize: 0x10 }
  - { offsetInCU: 0x18794, offset: 0x4365F, size: 0x8, addend: 0x0, symName: __ZNSt3__19allocatorINS_11__hash_nodeINS_17__hash_value_typeINS_12basic_stringIcNS_11char_traitsIcEENS0_IcEEEENS_6vectorIS7_NS0_IS7_EEEEEEPvEEE8allocateB8ue170006Em, symObjAddr: 0x5680, symBinAddr: 0x100017940, symSize: 0x50 }
  - { offsetInCU: 0x187D2, offset: 0x4369D, size: 0x8, addend: 0x0, symName: __ZNSt3__116allocator_traitsINS_9allocatorINS_11__hash_nodeINS_17__hash_value_typeINS_12basic_stringIcNS_11char_traitsIcEENS1_IcEEEENS_6vectorIS8_NS1_IS8_EEEEEEPvEEEEE8max_sizeB8ue170006ISF_vEEmRKSF_, symObjAddr: 0x56D0, symBinAddr: 0x100017990, symSize: 0x20 }
  - { offsetInCU: 0x18800, offset: 0x436CB, size: 0x8, addend: 0x0, symName: __ZNKSt3__19allocatorINS_11__hash_nodeINS_17__hash_value_typeINS_12basic_stringIcNS_11char_traitsIcEENS0_IcEEEENS_6vectorIS7_NS0_IS7_EEEEEEPvEEE8max_sizeB8ue170006Ev, symObjAddr: 0x56F0, symBinAddr: 0x1000179B0, symSize: 0x20 }
  - { offsetInCU: 0x18826, offset: 0x436F1, size: 0x8, addend: 0x0, symName: __ZNSt3__122__hash_node_destructorINS_9allocatorINS_11__hash_nodeINS_17__hash_value_typeINS_12basic_stringIcNS_11char_traitsIcEENS1_IcEEEENS_6vectorIS8_NS1_IS8_EEEEEEPvEEEEEC2B8ue170006ERSF_b, symObjAddr: 0x5710, symBinAddr: 0x1000179D0, symSize: 0x30 }
  - { offsetInCU: 0x1886E, offset: 0x43739, size: 0x8, addend: 0x0, symName: __ZNSt3__110unique_ptrINS_11__hash_nodeINS_17__hash_value_typeINS_12basic_stringIcNS_11char_traitsIcEENS_9allocatorIcEEEENS_6vectorIS8_NS6_IS8_EEEEEEPvEENS_22__hash_node_destructorINS6_ISE_EEEEEC2B8ue170006ILb1EvEEPSE_NS_16__dependent_typeINS_27__unique_ptr_deleter_sfinaeISH_EEXT_EE20__good_rval_ref_typeE, symObjAddr: 0x5740, symBinAddr: 0x100017A00, symSize: 0x40 }
  - { offsetInCU: 0x188BF, offset: 0x4378A, size: 0x8, addend: 0x0, symName: __ZNSt3__117__compressed_pairIPNS_11__hash_nodeINS_17__hash_value_typeINS_12basic_stringIcNS_11char_traitsIcEENS_9allocatorIcEEEENS_6vectorIS8_NS6_IS8_EEEEEEPvEENS_22__hash_node_destructorINS6_ISE_EEEEEC1B8ue170006IRSF_SI_EEOT_OT0_, symObjAddr: 0x5780, symBinAddr: 0x100017A40, symSize: 0x30 }
  - { offsetInCU: 0x18917, offset: 0x437E2, size: 0x8, addend: 0x0, symName: __ZNSt3__117__compressed_pairIPNS_11__hash_nodeINS_17__hash_value_typeINS_12basic_stringIcNS_11char_traitsIcEENS_9allocatorIcEEEENS_6vectorIS8_NS6_IS8_EEEEEEPvEENS_22__hash_node_destructorINS6_ISE_EEEEEC2B8ue170006IRSF_SI_EEOT_OT0_, symObjAddr: 0x57B0, symBinAddr: 0x100017A70, symSize: 0x40 }
  - { offsetInCU: 0x1896F, offset: 0x4383A, size: 0x8, addend: 0x0, symName: __ZNSt3__122__compressed_pair_elemIPNS_11__hash_nodeINS_17__hash_value_typeINS_12basic_stringIcNS_11char_traitsIcEENS_9allocatorIcEEEENS_6vectorIS8_NS6_IS8_EEEEEEPvEELi0ELb0EEC2B8ue170006IRSF_vEEOT_, symObjAddr: 0x57F0, symBinAddr: 0x100017AB0, symSize: 0x20 }
  - { offsetInCU: 0x189B1, offset: 0x4387C, size: 0x8, addend: 0x0, symName: __ZNSt3__122__compressed_pair_elemINS_22__hash_node_destructorINS_9allocatorINS_11__hash_nodeINS_17__hash_value_typeINS_12basic_stringIcNS_11char_traitsIcEENS2_IcEEEENS_6vectorIS9_NS2_IS9_EEEEEEPvEEEEEELi1ELb0EEC2B8ue170006ISH_vEEOT_, symObjAddr: 0x5810, symBinAddr: 0x100017AD0, symSize: 0x30 }
  - { offsetInCU: 0x189F3, offset: 0x438BE, size: 0x8, addend: 0x0, symName: __ZNSt3__19allocatorINS_11__hash_nodeINS_17__hash_value_typeINS_12basic_stringIcNS_11char_traitsIcEENS0_IcEEEENS_6vectorIS7_NS0_IS7_EEEEEEPvEEE9constructB8ue170006INS_4pairIKS7_SA_EEJRKNS_21piecewise_construct_tENS_5tupleIJRSH_EEENSM_IJEEEEEEvPT_DpOT0_, symObjAddr: 0x5840, symBinAddr: 0x100017B00, symSize: 0x40 }
  - { offsetInCU: 0x18A6F, offset: 0x4393A, size: 0x8, addend: 0x0, symName: __ZNSt3__14pairIKNS_12basic_stringIcNS_11char_traitsIcEENS_9allocatorIcEEEENS_6vectorIS6_NS4_IS6_EEEEEC1B8ue170006IJRS7_EJEEENS_21piecewise_construct_tENS_5tupleIJDpT_EEENSF_IJDpT0_EEE, symObjAddr: 0x5880, symBinAddr: 0x100017B40, symSize: 0x30 }
  - { offsetInCU: 0x18AD6, offset: 0x439A1, size: 0x8, addend: 0x0, symName: __ZNSt3__14pairIKNS_12basic_stringIcNS_11char_traitsIcEENS_9allocatorIcEEEENS_6vectorIS6_NS4_IS6_EEEEEC1B8ue170006IJRS7_EJEJLm0EEJEEENS_21piecewise_construct_tERNS_5tupleIJDpT_EEERNSF_IJDpT0_EEENS_15__tuple_indicesIJXspT1_EEEENSO_IJXspT2_EEEE, symObjAddr: 0x58B0, symBinAddr: 0x100017B70, symSize: 0x30 }
  - { offsetInCU: 0x18B63, offset: 0x43A2E, size: 0x8, addend: 0x0, symName: __ZNSt3__14pairIKNS_12basic_stringIcNS_11char_traitsIcEENS_9allocatorIcEEEENS_6vectorIS6_NS4_IS6_EEEEEC2B8ue170006IJRS7_EJEJLm0EEJEEENS_21piecewise_construct_tERNS_5tupleIJDpT_EEERNSF_IJDpT0_EEENS_15__tuple_indicesIJXspT1_EEEENSO_IJXspT2_EEEE, symObjAddr: 0x58E0, symBinAddr: 0x100017BA0, symSize: 0x50 }
  - { offsetInCU: 0x18BF0, offset: 0x43ABB, size: 0x8, addend: 0x0, symName: __ZNSt3__16vectorINS_12basic_stringIcNS_11char_traitsIcEENS_9allocatorIcEEEENS4_IS6_EEEC1B8ue170006Ev, symObjAddr: 0x5950, symBinAddr: 0x100017C10, symSize: 0x20 }
  - { offsetInCU: 0x18C1A, offset: 0x43AE5, size: 0x8, addend: 0x0, symName: __ZNSt3__112__tuple_leafILm0ERKNS_12basic_stringIcNS_11char_traitsIcEENS_9allocatorIcEEEELb0EE3getB8ue170006Ev, symObjAddr: 0x5970, symBinAddr: 0x100017C30, symSize: 0x20 }
  - { offsetInCU: 0x18C40, offset: 0x43B0B, size: 0x8, addend: 0x0, symName: __ZNSt3__16vectorINS_12basic_stringIcNS_11char_traitsIcEENS_9allocatorIcEEEENS4_IS6_EEEC2B8ue170006Ev, symObjAddr: 0x5990, symBinAddr: 0x100017C50, symSize: 0x50 }
  - { offsetInCU: 0x18C6A, offset: 0x43B35, size: 0x8, addend: 0x0, symName: __ZNSt3__117__compressed_pairIPNS_11__hash_nodeINS_17__hash_value_typeINS_12basic_stringIcNS_11char_traitsIcEENS_9allocatorIcEEEENS_6vectorIS8_NS6_IS8_EEEEEEPvEENS_22__hash_node_destructorINS6_ISE_EEEEE6secondB8ue170006Ev, symObjAddr: 0x59E0, symBinAddr: 0x100017CA0, symSize: 0x20 }
  - { offsetInCU: 0x18C90, offset: 0x43B5B, size: 0x8, addend: 0x0, symName: __ZNSt3__122__compressed_pair_elemINS_22__hash_node_destructorINS_9allocatorINS_11__hash_nodeINS_17__hash_value_typeINS_12basic_stringIcNS_11char_traitsIcEENS2_IcEEEENS_6vectorIS9_NS2_IS9_EEEEEEPvEEEEEELi1ELb0EE5__getB8ue170006Ev, symObjAddr: 0x5A00, symBinAddr: 0x100017CC0, symSize: 0x10 }
  - { offsetInCU: 0x18CB6, offset: 0x43B81, size: 0x8, addend: 0x0, symName: __ZNSt3__117__compressed_pairImNS_22__unordered_map_hasherINS_12basic_stringIcNS_11char_traitsIcEENS_9allocatorIcEEEENS_17__hash_value_typeIS7_NS_6vectorIS7_NS5_IS7_EEEEEENS_4hashIS7_EENS_8equal_toIS7_EELb1EEEE5firstB8ue170006Ev, symObjAddr: 0x5A10, symBinAddr: 0x100017CD0, symSize: 0x20 }
  - { offsetInCU: 0x18CDC, offset: 0x43BA7, size: 0x8, addend: 0x0, symName: __ZNSt3__117__compressed_pairIfNS_21__unordered_map_equalINS_12basic_stringIcNS_11char_traitsIcEENS_9allocatorIcEEEENS_17__hash_value_typeIS7_NS_6vectorIS7_NS5_IS7_EEEEEENS_8equal_toIS7_EENS_4hashIS7_EELb1EEEE5firstB8ue170006Ev, symObjAddr: 0x5A40, symBinAddr: 0x100017CF0, symSize: 0x20 }
  - { offsetInCU: 0x18D02, offset: 0x43BCD, size: 0x8, addend: 0x0, symName: __ZNSt3__112__hash_tableINS_17__hash_value_typeINS_12basic_stringIcNS_11char_traitsIcEENS_9allocatorIcEEEENS_6vectorIS7_NS5_IS7_EEEEEENS_22__unordered_map_hasherIS7_SB_NS_4hashIS7_EENS_8equal_toIS7_EELb1EEENS_21__unordered_map_equalIS7_SB_SG_SE_Lb1EEENS5_ISB_EEE8__rehashILb1EEEvm, symObjAddr: 0x5A70, symBinAddr: 0x100017D10, symSize: 0x230 }
  - { offsetInCU: 0x18D52, offset: 0x43C1D, size: 0x8, addend: 0x0, symName: __ZNSt3__112__hash_tableINS_17__hash_value_typeINS_12basic_stringIcNS_11char_traitsIcEENS_9allocatorIcEEEENS_6vectorIS7_NS5_IS7_EEEEEENS_22__unordered_map_hasherIS7_SB_NS_4hashIS7_EENS_8equal_toIS7_EELb1EEENS_21__unordered_map_equalIS7_SB_SG_SE_Lb1EEENS5_ISB_EEE11__do_rehashILb1EEEvm, symObjAddr: 0x5CA0, symBinAddr: 0x100017F40, symSize: 0x250 }
  - { offsetInCU: 0x18E39, offset: 0x43D04, size: 0x8, addend: 0x0, symName: __ZNSt3__110unique_ptrIA_PNS_16__hash_node_baseIPNS_11__hash_nodeINS_17__hash_value_typeINS_12basic_stringIcNS_11char_traitsIcEENS_9allocatorIcEEEENS_6vectorIS9_NS7_IS9_EEEEEEPvEEEENS_25__bucket_list_deallocatorINS7_ISI_EEEEE11get_deleterB8ue170006Ev, symObjAddr: 0x5F50, symBinAddr: 0x100018190, symSize: 0x20 }
  - { offsetInCU: 0x18E5F, offset: 0x43D2A, size: 0x8, addend: 0x0, symName: __ZNSt3__125__bucket_list_deallocatorINS_9allocatorIPNS_16__hash_node_baseIPNS_11__hash_nodeINS_17__hash_value_typeINS_12basic_stringIcNS_11char_traitsIcEENS1_IcEEEENS_6vectorIS9_NS1_IS9_EEEEEEPvEEEEEEE7__allocB8ue170006Ev, symObjAddr: 0x5F70, symBinAddr: 0x1000181B0, symSize: 0x20 }
  - { offsetInCU: 0x18E85, offset: 0x43D50, size: 0x8, addend: 0x0, symName: __ZNSt3__110unique_ptrIA_PNS_16__hash_node_baseIPNS_11__hash_nodeINS_17__hash_value_typeINS_12basic_stringIcNS_11char_traitsIcEENS_9allocatorIcEEEENS_6vectorIS9_NS7_IS9_EEEEEEPvEEEENS_25__bucket_list_deallocatorINS7_ISI_EEEEE5resetB8ue170006IPSI_EENS_9enable_ifIXsr28_CheckArrayPointerConversionIT_EE5valueEvE4typeESR_, symObjAddr: 0x5F90, symBinAddr: 0x1000181D0, symSize: 0x70 }
  - { offsetInCU: 0x18ED2, offset: 0x43D9D, size: 0x8, addend: 0x0, symName: __ZNSt3__116allocator_traitsINS_9allocatorIPNS_16__hash_node_baseIPNS_11__hash_nodeINS_17__hash_value_typeINS_12basic_stringIcNS_11char_traitsIcEENS1_IcEEEENS_6vectorIS9_NS1_IS9_EEEEEEPvEEEEEEE8allocateB8ue170006ERSJ_m, symObjAddr: 0x6000, symBinAddr: 0x100018240, symSize: 0x30 }
  - { offsetInCU: 0x18F05, offset: 0x43DD0, size: 0x8, addend: 0x0, symName: __ZNSt3__125__bucket_list_deallocatorINS_9allocatorIPNS_16__hash_node_baseIPNS_11__hash_nodeINS_17__hash_value_typeINS_12basic_stringIcNS_11char_traitsIcEENS1_IcEEEENS_6vectorIS9_NS1_IS9_EEEEEEPvEEEEEEE4sizeB8ue170006Ev, symObjAddr: 0x6030, symBinAddr: 0x100018270, symSize: 0x20 }
  - { offsetInCU: 0x18F2B, offset: 0x43DF6, size: 0x8, addend: 0x0, symName: __ZNSt3__117__compressed_pairIPPNS_16__hash_node_baseIPNS_11__hash_nodeINS_17__hash_value_typeINS_12basic_stringIcNS_11char_traitsIcEENS_9allocatorIcEEEENS_6vectorIS9_NS7_IS9_EEEEEEPvEEEENS_25__bucket_list_deallocatorINS7_ISI_EEEEE6secondB8ue170006Ev, symObjAddr: 0x6050, symBinAddr: 0x100018290, symSize: 0x20 }
  - { offsetInCU: 0x18F51, offset: 0x43E1C, size: 0x8, addend: 0x0, symName: __ZNSt3__122__compressed_pair_elemINS_25__bucket_list_deallocatorINS_9allocatorIPNS_16__hash_node_baseIPNS_11__hash_nodeINS_17__hash_value_typeINS_12basic_stringIcNS_11char_traitsIcEENS2_IcEEEENS_6vectorISA_NS2_ISA_EEEEEEPvEEEEEEEELi1ELb0EE5__getB8ue170006Ev, symObjAddr: 0x6070, symBinAddr: 0x1000182B0, symSize: 0x10 }
  - { offsetInCU: 0x18F77, offset: 0x43E42, size: 0x8, addend: 0x0, symName: __ZNSt3__117__compressed_pairImNS_9allocatorIPNS_16__hash_node_baseIPNS_11__hash_nodeINS_17__hash_value_typeINS_12basic_stringIcNS_11char_traitsIcEENS1_IcEEEENS_6vectorIS9_NS1_IS9_EEEEEEPvEEEEEEE6secondB8ue170006Ev, symObjAddr: 0x6080, symBinAddr: 0x1000182C0, symSize: 0x20 }
  - { offsetInCU: 0x18F9D, offset: 0x43E68, size: 0x8, addend: 0x0, symName: __ZNSt3__122__compressed_pair_elemINS_9allocatorIPNS_16__hash_node_baseIPNS_11__hash_nodeINS_17__hash_value_typeINS_12basic_stringIcNS_11char_traitsIcEENS1_IcEEEENS_6vectorIS9_NS1_IS9_EEEEEEPvEEEEEELi1ELb1EE5__getB8ue170006Ev, symObjAddr: 0x60A0, symBinAddr: 0x1000182E0, symSize: 0x10 }
  - { offsetInCU: 0x18FC3, offset: 0x43E8E, size: 0x8, addend: 0x0, symName: __ZNSt3__117__compressed_pairIPPNS_16__hash_node_baseIPNS_11__hash_nodeINS_17__hash_value_typeINS_12basic_stringIcNS_11char_traitsIcEENS_9allocatorIcEEEENS_6vectorIS9_NS7_IS9_EEEEEEPvEEEENS_25__bucket_list_deallocatorINS7_ISI_EEEEE5firstB8ue170006Ev, symObjAddr: 0x60B0, symBinAddr: 0x1000182F0, symSize: 0x20 }
  - { offsetInCU: 0x18FE9, offset: 0x43EB4, size: 0x8, addend: 0x0, symName: __ZNSt3__125__bucket_list_deallocatorINS_9allocatorIPNS_16__hash_node_baseIPNS_11__hash_nodeINS_17__hash_value_typeINS_12basic_stringIcNS_11char_traitsIcEENS1_IcEEEENS_6vectorIS9_NS1_IS9_EEEEEEPvEEEEEEEclB8ue170006EPSI_, symObjAddr: 0x60D0, symBinAddr: 0x100018310, symSize: 0x50 }
  - { offsetInCU: 0x1901E, offset: 0x43EE9, size: 0x8, addend: 0x0, symName: __ZNSt3__122__compressed_pair_elemIPPNS_16__hash_node_baseIPNS_11__hash_nodeINS_17__hash_value_typeINS_12basic_stringIcNS_11char_traitsIcEENS_9allocatorIcEEEENS_6vectorIS9_NS7_IS9_EEEEEEPvEEEELi0ELb0EE5__getB8ue170006Ev, symObjAddr: 0x6120, symBinAddr: 0x100018360, symSize: 0x10 }
  - { offsetInCU: 0x19044, offset: 0x43F0F, size: 0x8, addend: 0x0, symName: __ZNSt3__116allocator_traitsINS_9allocatorIPNS_16__hash_node_baseIPNS_11__hash_nodeINS_17__hash_value_typeINS_12basic_stringIcNS_11char_traitsIcEENS1_IcEEEENS_6vectorIS9_NS1_IS9_EEEEEEPvEEEEEEE10deallocateB8ue170006ERSJ_PSI_m, symObjAddr: 0x6130, symBinAddr: 0x100018370, symSize: 0x30 }
  - { offsetInCU: 0x19086, offset: 0x43F51, size: 0x8, addend: 0x0, symName: __ZNSt3__19allocatorIPNS_16__hash_node_baseIPNS_11__hash_nodeINS_17__hash_value_typeINS_12basic_stringIcNS_11char_traitsIcEENS0_IcEEEENS_6vectorIS8_NS0_IS8_EEEEEEPvEEEEE10deallocateB8ue170006EPSH_m, symObjAddr: 0x6160, symBinAddr: 0x1000183A0, symSize: 0x40 }
  - { offsetInCU: 0x190C8, offset: 0x43F93, size: 0x8, addend: 0x0, symName: __ZNSt3__19allocatorIPNS_16__hash_node_baseIPNS_11__hash_nodeINS_17__hash_value_typeINS_12basic_stringIcNS_11char_traitsIcEENS0_IcEEEENS_6vectorIS8_NS0_IS8_EEEEEEPvEEEEE8allocateB8ue170006Em, symObjAddr: 0x61A0, symBinAddr: 0x1000183E0, symSize: 0x50 }
  - { offsetInCU: 0x19106, offset: 0x43FD1, size: 0x8, addend: 0x0, symName: __ZNSt3__116allocator_traitsINS_9allocatorIPNS_16__hash_node_baseIPNS_11__hash_nodeINS_17__hash_value_typeINS_12basic_stringIcNS_11char_traitsIcEENS1_IcEEEENS_6vectorIS9_NS1_IS9_EEEEEEPvEEEEEEE8max_sizeB8ue170006ISJ_vEEmRKSJ_, symObjAddr: 0x61F0, symBinAddr: 0x100018430, symSize: 0x20 }
  - { offsetInCU: 0x19134, offset: 0x43FFF, size: 0x8, addend: 0x0, symName: __ZNKSt3__19allocatorIPNS_16__hash_node_baseIPNS_11__hash_nodeINS_17__hash_value_typeINS_12basic_stringIcNS_11char_traitsIcEENS0_IcEEEENS_6vectorIS8_NS0_IS8_EEEEEEPvEEEEE8max_sizeB8ue170006Ev, symObjAddr: 0x6210, symBinAddr: 0x100018450, symSize: 0x20 }
  - { offsetInCU: 0x1915A, offset: 0x44025, size: 0x8, addend: 0x0, symName: __ZNSt3__117__compressed_pairImNS_9allocatorIPNS_16__hash_node_baseIPNS_11__hash_nodeINS_17__hash_value_typeINS_12basic_stringIcNS_11char_traitsIcEENS1_IcEEEENS_6vectorIS9_NS1_IS9_EEEEEEPvEEEEEEE5firstB8ue170006Ev, symObjAddr: 0x6230, symBinAddr: 0x100018470, symSize: 0x20 }
  - { offsetInCU: 0x19180, offset: 0x4404B, size: 0x8, addend: 0x0, symName: __ZNKSt3__117__compressed_pairIPNS_11__hash_nodeINS_17__hash_value_typeINS_12basic_stringIcNS_11char_traitsIcEENS_9allocatorIcEEEENS_6vectorIS8_NS6_IS8_EEEEEEPvEENS_22__hash_node_destructorINS6_ISE_EEEEE5firstB8ue170006Ev, symObjAddr: 0x62C0, symBinAddr: 0x100018490, symSize: 0x20 }
  - { offsetInCU: 0x191A6, offset: 0x44071, size: 0x8, addend: 0x0, symName: __ZNKSt3__122__compressed_pair_elemIPNS_11__hash_nodeINS_17__hash_value_typeINS_12basic_stringIcNS_11char_traitsIcEENS_9allocatorIcEEEENS_6vectorIS8_NS6_IS8_EEEEEEPvEELi0ELb0EE5__getB8ue170006Ev, symObjAddr: 0x62E0, symBinAddr: 0x1000184B0, symSize: 0x10 }
  - { offsetInCU: 0x191CC, offset: 0x44097, size: 0x8, addend: 0x0, symName: __ZNSt3__117__compressed_pairIPNS_11__hash_nodeINS_17__hash_value_typeINS_12basic_stringIcNS_11char_traitsIcEENS_9allocatorIcEEEENS_6vectorIS8_NS6_IS8_EEEEEEPvEENS_22__hash_node_destructorINS6_ISE_EEEEE5firstB8ue170006Ev, symObjAddr: 0x62F0, symBinAddr: 0x1000184C0, symSize: 0x20 }
  - { offsetInCU: 0x191F2, offset: 0x440BD, size: 0x8, addend: 0x0, symName: __ZNSt3__122__compressed_pair_elemIPNS_11__hash_nodeINS_17__hash_value_typeINS_12basic_stringIcNS_11char_traitsIcEENS_9allocatorIcEEEENS_6vectorIS8_NS6_IS8_EEEEEEPvEELi0ELb0EE5__getB8ue170006Ev, symObjAddr: 0x6310, symBinAddr: 0x1000184E0, symSize: 0x10 }
  - { offsetInCU: 0x19218, offset: 0x440E3, size: 0x8, addend: 0x0, symName: __ZNSt3__110unique_ptrINS_11__hash_nodeINS_17__hash_value_typeINS_12basic_stringIcNS_11char_traitsIcEENS_9allocatorIcEEEENS_6vectorIS8_NS6_IS8_EEEEEEPvEENS_22__hash_node_destructorINS6_ISE_EEEEED2B8ue170006Ev, symObjAddr: 0x6320, symBinAddr: 0x1000184F0, symSize: 0x20 }
  - { offsetInCU: 0x19242, offset: 0x4410D, size: 0x8, addend: 0x0, symName: __ZNSt3__110unique_ptrINS_11__hash_nodeINS_17__hash_value_typeINS_12basic_stringIcNS_11char_traitsIcEENS_9allocatorIcEEEENS_6vectorIS8_NS6_IS8_EEEEEEPvEENS_22__hash_node_destructorINS6_ISE_EEEEE5resetB8ue170006EPSE_, symObjAddr: 0x6340, symBinAddr: 0x100018510, symSize: 0x70 }
  - { offsetInCU: 0x19286, offset: 0x44151, size: 0x8, addend: 0x0, symName: __ZNSt3__122__hash_node_destructorINS_9allocatorINS_11__hash_nodeINS_17__hash_value_typeINS_12basic_stringIcNS_11char_traitsIcEENS1_IcEEEENS_6vectorIS8_NS1_IS8_EEEEEEPvEEEEEclB8ue170006EPSE_, symObjAddr: 0x63B0, symBinAddr: 0x100018580, symSize: 0x80 }
  - { offsetInCU: 0x192BB, offset: 0x44186, size: 0x8, addend: 0x0, symName: __ZNSt3__116allocator_traitsINS_9allocatorINS_11__hash_nodeINS_17__hash_value_typeINS_12basic_stringIcNS_11char_traitsIcEENS1_IcEEEENS_6vectorIS8_NS1_IS8_EEEEEEPvEEEEE7destroyB8ue170006INS_4pairIKS8_SB_EEvvEEvRSF_PT_, symObjAddr: 0x6430, symBinAddr: 0x100018600, symSize: 0x20 }
  - { offsetInCU: 0x192F5, offset: 0x441C0, size: 0x8, addend: 0x0, symName: __ZNSt3__116allocator_traitsINS_9allocatorINS_11__hash_nodeINS_17__hash_value_typeINS_12basic_stringIcNS_11char_traitsIcEENS1_IcEEEENS_6vectorIS8_NS1_IS8_EEEEEEPvEEEEE10deallocateB8ue170006ERSF_PSE_m, symObjAddr: 0x6450, symBinAddr: 0x100018620, symSize: 0x30 }
  - { offsetInCU: 0x19337, offset: 0x44202, size: 0x8, addend: 0x0, symName: __ZNSt3__14pairIKNS_12basic_stringIcNS_11char_traitsIcEENS_9allocatorIcEEEENS_6vectorIS6_NS4_IS6_EEEEED1Ev, symObjAddr: 0x6480, symBinAddr: 0x100018650, symSize: 0x20 }
  - { offsetInCU: 0x19363, offset: 0x4422E, size: 0x8, addend: 0x0, symName: __ZNSt3__14pairIKNS_12basic_stringIcNS_11char_traitsIcEENS_9allocatorIcEEEENS_6vectorIS6_NS4_IS6_EEEEED2Ev, symObjAddr: 0x64A0, symBinAddr: 0x100018670, symSize: 0x30 }
  - { offsetInCU: 0x1938F, offset: 0x4425A, size: 0x8, addend: 0x0, symName: __ZNSt3__19allocatorINS_11__hash_nodeINS_17__hash_value_typeINS_12basic_stringIcNS_11char_traitsIcEENS0_IcEEEENS_6vectorIS7_NS0_IS7_EEEEEEPvEEE10deallocateB8ue170006EPSD_m, symObjAddr: 0x64D0, symBinAddr: 0x1000186A0, symSize: 0x40 }
  - { offsetInCU: 0x193D1, offset: 0x4429C, size: 0x8, addend: 0x0, symName: __ZNSt3__14pairINS_15__hash_iteratorIPNS_11__hash_nodeINS_17__hash_value_typeINS_12basic_stringIcNS_11char_traitsIcEENS_9allocatorIcEEEENS_6vectorIS9_NS7_IS9_EEEEEEPvEEEEbEC2B8ue170006ISH_RbLSE_0EEEOT_OT0_, symObjAddr: 0x6510, symBinAddr: 0x1000186E0, symSize: 0x30 }
  - { offsetInCU: 0x1942F, offset: 0x442FA, size: 0x8, addend: 0x0, symName: __ZNSt3__15tupleIJRKNS_12basic_stringIcNS_11char_traitsIcEENS_9allocatorIcEEEEEEC1B8ue170006INS_4_AndELi0EEES8_, symObjAddr: 0x6540, symBinAddr: 0x100018710, symSize: 0x30 }
  - { offsetInCU: 0x19478, offset: 0x44343, size: 0x8, addend: 0x0, symName: __ZNSt3__15tupleIJRKNS_12basic_stringIcNS_11char_traitsIcEENS_9allocatorIcEEEEEEC2B8ue170006INS_4_AndELi0EEES8_, symObjAddr: 0x6570, symBinAddr: 0x100018740, symSize: 0x30 }
  - { offsetInCU: 0x194C1, offset: 0x4438C, size: 0x8, addend: 0x0, symName: __ZNSt3__112__tuple_implINS_15__tuple_indicesIJLm0EEEEJRKNS_12basic_stringIcNS_11char_traitsIcEENS_9allocatorIcEEEEEEC1B8ue170006IJLm0EEJSA_EJEJEJSA_EEENS1_IJXspT_EEEENS_13__tuple_typesIJDpT0_EEENS1_IJXspT1_EEEENSE_IJDpT2_EEEDpOT3_, symObjAddr: 0x65A0, symBinAddr: 0x100018770, symSize: 0x30 }
  - { offsetInCU: 0x19552, offset: 0x4441D, size: 0x8, addend: 0x0, symName: __ZNSt3__112__tuple_implINS_15__tuple_indicesIJLm0EEEEJRKNS_12basic_stringIcNS_11char_traitsIcEENS_9allocatorIcEEEEEEC2B8ue170006IJLm0EEJSA_EJEJEJSA_EEENS1_IJXspT_EEEENS_13__tuple_typesIJDpT0_EEENS1_IJXspT1_EEEENSE_IJDpT2_EEEDpOT3_, symObjAddr: 0x65D0, symBinAddr: 0x1000187A0, symSize: 0x30 }
  - { offsetInCU: 0x195E3, offset: 0x444AE, size: 0x8, addend: 0x0, symName: __ZNSt3__112__tuple_leafILm0ERKNS_12basic_stringIcNS_11char_traitsIcEENS_9allocatorIcEEEELb0EEC2B8ue170006IS8_vEEOT_, symObjAddr: 0x6600, symBinAddr: 0x1000187D0, symSize: 0x20 }
  - { offsetInCU: 0x19626, offset: 0x444F1, size: 0x8, addend: 0x0, symName: __ZNSt3__16vectorINS_12basic_stringIcNS_11char_traitsIcEENS_9allocatorIcEEEENS4_IS6_EEE19__copy_assign_allocB8ue170006ERKS8_, symObjAddr: 0x6620, symBinAddr: 0x1000187F0, symSize: 0x30 }
  - { offsetInCU: 0x1965B, offset: 0x44526, size: 0x8, addend: 0x0, symName: __ZNSt3__16vectorINS_12basic_stringIcNS_11char_traitsIcEENS_9allocatorIcEEEENS4_IS6_EEE6assignIPS6_Li0EEEvT_SB_, symObjAddr: 0x6650, symBinAddr: 0x100018820, symSize: 0x60 }
  - { offsetInCU: 0x196B0, offset: 0x4457B, size: 0x8, addend: 0x0, symName: __ZNSt3__16vectorINS_12basic_stringIcNS_11char_traitsIcEENS_9allocatorIcEEEENS4_IS6_EEE19__copy_assign_allocB8ue170006ERKS8_NS_17integral_constantIbLb0EEE, symObjAddr: 0x66B0, symBinAddr: 0x100018880, symSize: 0x10 }
  - { offsetInCU: 0x196EC, offset: 0x445B7, size: 0x8, addend: 0x0, symName: __ZNSt3__16vectorINS_12basic_stringIcNS_11char_traitsIcEENS_9allocatorIcEEEENS4_IS6_EEE18__assign_with_sizeB8ue170006IPS6_SA_EEvT_T0_l, symObjAddr: 0x66C0, symBinAddr: 0x100018890, symSize: 0x160 }
  - { offsetInCU: 0x1979E, offset: 0x44669, size: 0x8, addend: 0x0, symName: __ZNSt3__16vectorINS_12basic_stringIcNS_11char_traitsIcEENS_9allocatorIcEEEENS4_IS6_EEE18__construct_at_endIPS6_SA_EEvT_T0_m, symObjAddr: 0x68C0, symBinAddr: 0x100018A90, symSize: 0x90 }
  - { offsetInCU: 0x19814, offset: 0x446DF, size: 0x8, addend: 0x0, symName: __ZNSt3__16vectorINS_12basic_stringIcNS_11char_traitsIcEENS_9allocatorIcEEEENS4_IS6_EEE17__destruct_at_endB8ue170006EPS6_, symObjAddr: 0x6990, symBinAddr: 0x100018B60, symSize: 0x50 }
  - { offsetInCU: 0x19858, offset: 0x44723, size: 0x8, addend: 0x0, symName: __ZNSt3__16vectorINS_12basic_stringIcNS_11char_traitsIcEENS_9allocatorIcEEEENS4_IS6_EEE13__vdeallocateEv, symObjAddr: 0x69E0, symBinAddr: 0x100018BB0, symSize: 0x90 }
  - { offsetInCU: 0x19880, offset: 0x4474B, size: 0x8, addend: 0x0, symName: __ZNKSt3__16vectorINS_12basic_stringIcNS_11char_traitsIcEENS_9allocatorIcEEEENS4_IS6_EEE11__recommendB8ue170006Em, symObjAddr: 0x6A70, symBinAddr: 0x100018C40, symSize: 0xA0 }
  - { offsetInCU: 0x198F3, offset: 0x447BE, size: 0x8, addend: 0x0, symName: __ZNSt3__14pairIPNS_12basic_stringIcNS_11char_traitsIcEENS_9allocatorIcEEEES7_EC1B8ue170006IS7_S7_LPv0EEEOT_OT0_, symObjAddr: 0x6DD0, symBinAddr: 0x100018FA0, symSize: 0x30 }
  - { offsetInCU: 0x19951, offset: 0x4481C, size: 0x8, addend: 0x0, symName: __ZNSt3__14pairIPNS_12basic_stringIcNS_11char_traitsIcEENS_9allocatorIcEEEES7_EC2B8ue170006IS7_S7_LPv0EEEOT_OT0_, symObjAddr: 0x6E00, symBinAddr: 0x100018FD0, symSize: 0x30 }
  - { offsetInCU: 0x199AF, offset: 0x4487A, size: 0x8, addend: 0x0, symName: __ZNSt3__129_AllocatorDestroyRangeReverseINS_9allocatorINS_12basic_stringIcNS_11char_traitsIcEENS1_IcEEEEEEPS6_EC1B8ue170006ERS7_RS8_SB_, symObjAddr: 0x6E90, symBinAddr: 0x100019060, symSize: 0x40 }
  - { offsetInCU: 0x19A06, offset: 0x448D1, size: 0x8, addend: 0x0, symName: __ZNSt3__116allocator_traitsINS_9allocatorINS_12basic_stringIcNS_11char_traitsIcEENS1_IcEEEEEEE9constructB8ue170006IS6_JRS6_EvEEvRS7_PT_DpOT0_, symObjAddr: 0x6ED0, symBinAddr: 0x1000190A0, symSize: 0x30 }
  - { offsetInCU: 0x19A5D, offset: 0x44928, size: 0x8, addend: 0x0, symName: __ZNSt3__128__exception_guard_exceptionsINS_29_AllocatorDestroyRangeReverseINS_9allocatorINS_12basic_stringIcNS_11char_traitsIcEENS2_IcEEEEEEPS7_EEE10__completeB8ue170006Ev, symObjAddr: 0x6F00, symBinAddr: 0x1000190D0, symSize: 0x20 }
  - { offsetInCU: 0x19A83, offset: 0x4494E, size: 0x8, addend: 0x0, symName: __ZNSt3__128__exception_guard_exceptionsINS_29_AllocatorDestroyRangeReverseINS_9allocatorINS_12basic_stringIcNS_11char_traitsIcEENS2_IcEEEEEEPS7_EEED1B8ue170006Ev, symObjAddr: 0x6F20, symBinAddr: 0x1000190F0, symSize: 0x20 }
  - { offsetInCU: 0x19AAD, offset: 0x44978, size: 0x8, addend: 0x0, symName: __ZNSt3__128__exception_guard_exceptionsINS_29_AllocatorDestroyRangeReverseINS_9allocatorINS_12basic_stringIcNS_11char_traitsIcEENS2_IcEEEEEEPS7_EEEC1B8ue170006ESA_, symObjAddr: 0x6F40, symBinAddr: 0x100019110, symSize: 0x40 }
  - { offsetInCU: 0x19AE5, offset: 0x449B0, size: 0x8, addend: 0x0, symName: __ZNSt3__128__exception_guard_exceptionsINS_29_AllocatorDestroyRangeReverseINS_9allocatorINS_12basic_stringIcNS_11char_traitsIcEENS2_IcEEEEEEPS7_EEEC2B8ue170006ESA_, symObjAddr: 0x6F80, symBinAddr: 0x100019150, symSize: 0x30 }
  - { offsetInCU: 0x19B1D, offset: 0x449E8, size: 0x8, addend: 0x0, symName: __ZNSt3__129_AllocatorDestroyRangeReverseINS_9allocatorINS_12basic_stringIcNS_11char_traitsIcEENS1_IcEEEEEEPS6_EC2B8ue170006ERS7_RS8_SB_, symObjAddr: 0x6FB0, symBinAddr: 0x100019180, symSize: 0x40 }
  - { offsetInCU: 0x19B74, offset: 0x44A3F, size: 0x8, addend: 0x0, symName: __ZNSt3__19allocatorINS_12basic_stringIcNS_11char_traitsIcEENS0_IcEEEEE9constructB8ue170006IS5_JRS5_EEEvPT_DpOT0_, symObjAddr: 0x6FF0, symBinAddr: 0x1000191C0, symSize: 0x30 }
  - { offsetInCU: 0x19BCA, offset: 0x44A95, size: 0x8, addend: 0x0, symName: __ZNSt3__128__exception_guard_exceptionsINS_29_AllocatorDestroyRangeReverseINS_9allocatorINS_12basic_stringIcNS_11char_traitsIcEENS2_IcEEEEEEPS7_EEED2B8ue170006Ev, symObjAddr: 0x7020, symBinAddr: 0x1000191F0, symSize: 0x40 }
  - { offsetInCU: 0x19BF4, offset: 0x44ABF, size: 0x8, addend: 0x0, symName: __ZNKSt3__129_AllocatorDestroyRangeReverseINS_9allocatorINS_12basic_stringIcNS_11char_traitsIcEENS1_IcEEEEEEPS6_EclB8ue170006Ev, symObjAddr: 0x7060, symBinAddr: 0x100019230, symSize: 0x60 }
  - { offsetInCU: 0x19C1A, offset: 0x44AE5, size: 0x8, addend: 0x0, symName: __ZNSt3__116reverse_iteratorIPNS_12basic_stringIcNS_11char_traitsIcEENS_9allocatorIcEEEEEC1B8ue170006ES7_, symObjAddr: 0x7130, symBinAddr: 0x100019300, symSize: 0x30 }
  - { offsetInCU: 0x19C52, offset: 0x44B1D, size: 0x8, addend: 0x0, symName: __ZNSt3__116reverse_iteratorIPNS_12basic_stringIcNS_11char_traitsIcEENS_9allocatorIcEEEEEppB8ue170006Ev, symObjAddr: 0x71C0, symBinAddr: 0x100019390, symSize: 0x20 }
  - { offsetInCU: 0x19C78, offset: 0x44B43, size: 0x8, addend: 0x0, symName: __ZNKSt3__116reverse_iteratorIPNS_12basic_stringIcNS_11char_traitsIcEENS_9allocatorIcEEEEE4baseB8ue170006Ev, symObjAddr: 0x71E0, symBinAddr: 0x1000193B0, symSize: 0x20 }
  - { offsetInCU: 0x19CA3, offset: 0x44B6E, size: 0x8, addend: 0x0, symName: __ZNSt3__119__to_address_helperINS_16reverse_iteratorIPNS_12basic_stringIcNS_11char_traitsIcEENS_9allocatorIcEEEEEEvE6__callB8ue170006ERKS9_, symObjAddr: 0x7200, symBinAddr: 0x1000193D0, symSize: 0x40 }
  - { offsetInCU: 0x19CC6, offset: 0x44B91, size: 0x8, addend: 0x0, symName: __ZNKSt3__116reverse_iteratorIPNS_12basic_stringIcNS_11char_traitsIcEENS_9allocatorIcEEEEEptB8ue170006Ev, symObjAddr: 0x7240, symBinAddr: 0x100019410, symSize: 0x20 }
  - { offsetInCU: 0x19CEC, offset: 0x44BB7, size: 0x8, addend: 0x0, symName: __ZNKSt3__116reverse_iteratorIPNS_12basic_stringIcNS_11char_traitsIcEENS_9allocatorIcEEEEEdeB8ue170006Ev, symObjAddr: 0x7260, symBinAddr: 0x100019430, symSize: 0x30 }
  - { offsetInCU: 0x19D20, offset: 0x44BEB, size: 0x8, addend: 0x0, symName: __ZNSt3__116reverse_iteratorIPNS_12basic_stringIcNS_11char_traitsIcEENS_9allocatorIcEEEEEC2B8ue170006ES7_, symObjAddr: 0x7290, symBinAddr: 0x100019460, symSize: 0x30 }
  - { offsetInCU: 0x19D58, offset: 0x44C23, size: 0x8, addend: 0x0, symName: __ZNSt3__118__unwrap_iter_implIPNS_12basic_stringIcNS_11char_traitsIcEENS_9allocatorIcEEEELb1EE8__unwrapB8ue170006ES7_, symObjAddr: 0x72C0, symBinAddr: 0x100019490, symSize: 0x20 }
  - { offsetInCU: 0x19D7B, offset: 0x44C46, size: 0x8, addend: 0x0, symName: __ZNSt3__118__unwrap_iter_implIPNS_12basic_stringIcNS_11char_traitsIcEENS_9allocatorIcEEEELb1EE8__rewrapB8ue170006ES7_S7_, symObjAddr: 0x72E0, symBinAddr: 0x1000194B0, symSize: 0x60 }
  - { offsetInCU: 0x19DB6, offset: 0x44C81, size: 0x8, addend: 0x0, symName: __ZNKSt3__111__copy_loopINS_17_ClassicAlgPolicyEEclB8ue170006IPNS_12basic_stringIcNS_11char_traitsIcEENS_9allocatorIcEEEESA_SA_EENS_4pairIT_T1_EESC_T0_SD_, symObjAddr: 0x7430, symBinAddr: 0x100019600, symSize: 0x80 }
  - { offsetInCU: 0x19E21, offset: 0x44CEC, size: 0x8, addend: 0x0, symName: __ZNKSt3__16vectorINS_12basic_stringIcNS_11char_traitsIcEENS_9allocatorIcEEEENS4_IS6_EEE17__annotate_shrinkB8ue170006Em, symObjAddr: 0x74E0, symBinAddr: 0x1000196B0, symSize: 0xA0 }
  - { offsetInCU: 0x19E56, offset: 0x44D21, size: 0x8, addend: 0x0, symName: __ZNSt3__16vectorINS_12basic_stringIcNS_11char_traitsIcEENS_9allocatorIcEEEENS4_IS6_EEE5clearB8ue170006Ev, symObjAddr: 0x7580, symBinAddr: 0x100019750, symSize: 0x40 }
  - { offsetInCU: 0x19E8B, offset: 0x44D56, size: 0x8, addend: 0x0, symName: __ZNSt3__112__hash_tableINS_17__hash_value_typeINS_12basic_stringIcNS_11char_traitsIcEENS_9allocatorIcEEEEbEENS_22__unordered_map_hasherIS7_S8_NS_4hashIS7_EENS_8equal_toIS7_EELb1EEENS_21__unordered_map_equalIS7_S8_SD_SB_Lb1EEENS5_IS8_EEE25__emplace_unique_key_argsIS7_JRKNS_21piecewise_construct_tENS_5tupleIJRKS7_EEENSN_IJEEEEEENS_4pairINS_15__hash_iteratorIPNS_11__hash_nodeIS8_PvEEEEbEERKT_DpOT0_, symObjAddr: 0x75F0, symBinAddr: 0x1000197C0, symSize: 0x610 }
  - { offsetInCU: 0x19F94, offset: 0x44E5F, size: 0x8, addend: 0x0, symName: __ZNSt3__112__hash_tableINS_17__hash_value_typeINS_12basic_stringIcNS_11char_traitsIcEENS_9allocatorIcEEEEbEENS_22__unordered_map_hasherIS7_S8_NS_4hashIS7_EENS_8equal_toIS7_EELb1EEENS_21__unordered_map_equalIS7_S8_SD_SB_Lb1EEENS5_IS8_EEE21__construct_node_hashIRKNS_21piecewise_construct_tEJNS_5tupleIJRKS7_EEENSN_IJEEEEEENS_10unique_ptrINS_11__hash_nodeIS8_PvEENS_22__hash_node_destructorINS5_ISV_EEEEEEmOT_DpOT0_, symObjAddr: 0x7D90, symBinAddr: 0x100019DD0, symSize: 0x150 }
  - { offsetInCU: 0x1A035, offset: 0x44F00, size: 0x8, addend: 0x0, symName: __ZNSt3__116allocator_traitsINS_9allocatorINS_11__hash_nodeINS_17__hash_value_typeINS_12basic_stringIcNS_11char_traitsIcEENS1_IcEEEEbEEPvEEEEE9constructB8ue170006INS_4pairIKS8_bEEJRKNS_21piecewise_construct_tENS_5tupleIJRSG_EEENSL_IJEEEEvEEvRSC_PT_DpOT0_, symObjAddr: 0x8290, symBinAddr: 0x100019F20, symSize: 0x40 }
  - { offsetInCU: 0x1A0BE, offset: 0x44F89, size: 0x8, addend: 0x0, symName: __ZNSt3__19allocatorINS_11__hash_nodeINS_17__hash_value_typeINS_12basic_stringIcNS_11char_traitsIcEENS0_IcEEEEbEEPvEEE9constructB8ue170006INS_4pairIKS7_bEEJRKNS_21piecewise_construct_tENS_5tupleIJRSE_EEENSJ_IJEEEEEEvPT_DpOT0_, symObjAddr: 0x8500, symBinAddr: 0x100019F60, symSize: 0x40 }
  - { offsetInCU: 0x1A13A, offset: 0x45005, size: 0x8, addend: 0x0, symName: __ZNSt3__14pairIKNS_12basic_stringIcNS_11char_traitsIcEENS_9allocatorIcEEEEbEC1B8ue170006IJRS7_EJEEENS_21piecewise_construct_tENS_5tupleIJDpT_EEENSC_IJDpT0_EEE, symObjAddr: 0x8540, symBinAddr: 0x100019FA0, symSize: 0x30 }
  - { offsetInCU: 0x1A1A1, offset: 0x4506C, size: 0x8, addend: 0x0, symName: __ZNSt3__14pairIKNS_12basic_stringIcNS_11char_traitsIcEENS_9allocatorIcEEEEbEC1B8ue170006IJRS7_EJEJLm0EEJEEENS_21piecewise_construct_tERNS_5tupleIJDpT_EEERNSC_IJDpT0_EEENS_15__tuple_indicesIJXspT1_EEEENSL_IJXspT2_EEEE, symObjAddr: 0x8570, symBinAddr: 0x100019FD0, symSize: 0x30 }
  - { offsetInCU: 0x1A22E, offset: 0x450F9, size: 0x8, addend: 0x0, symName: __ZNSt3__14pairIKNS_12basic_stringIcNS_11char_traitsIcEENS_9allocatorIcEEEEbEC2B8ue170006IJRS7_EJEJLm0EEJEEENS_21piecewise_construct_tERNS_5tupleIJDpT_EEERNSC_IJDpT0_EEENS_15__tuple_indicesIJXspT1_EEEENSL_IJXspT2_EEEE, symObjAddr: 0x85A0, symBinAddr: 0x10001A000, symSize: 0x40 }
  - { offsetInCU: 0x1A2BB, offset: 0x45186, size: 0x8, addend: 0x0, symName: __ZNSt3__112__hash_tableINS_17__hash_value_typeINS_12basic_stringIcNS_11char_traitsIcEENS_9allocatorIcEEEEP4NodeEENS_22__unordered_map_hasherIS7_SA_NS_4hashIS7_EENS_8equal_toIS7_EELb1EEENS_21__unordered_map_equalIS7_SA_SF_SD_Lb1EEENS5_ISA_EEE25__emplace_unique_key_argsIS7_JRKNS_21piecewise_construct_tENS_5tupleIJRKS7_EEENSP_IJEEEEEENS_4pairINS_15__hash_iteratorIPNS_11__hash_nodeISA_PvEEEEbEERKT_DpOT0_, symObjAddr: 0x90A0, symBinAddr: 0x10001A040, symSize: 0x610 }
  - { offsetInCU: 0x1A3C4, offset: 0x4528F, size: 0x8, addend: 0x0, symName: __ZNSt3__112__hash_tableINS_17__hash_value_typeINS_12basic_stringIcNS_11char_traitsIcEENS_9allocatorIcEEEEP4NodeEENS_22__unordered_map_hasherIS7_SA_NS_4hashIS7_EENS_8equal_toIS7_EELb1EEENS_21__unordered_map_equalIS7_SA_SF_SD_Lb1EEENS5_ISA_EEE13hash_functionB8ue170006Ev, symObjAddr: 0x96F0, symBinAddr: 0x10001A650, symSize: 0x20 }
  - { offsetInCU: 0x1A3EA, offset: 0x452B5, size: 0x8, addend: 0x0, symName: __ZNKSt3__122__unordered_map_hasherINS_12basic_stringIcNS_11char_traitsIcEENS_9allocatorIcEEEENS_17__hash_value_typeIS6_P4NodeEENS_4hashIS6_EENS_8equal_toIS6_EELb1EEclB8ue170006ERKS6_, symObjAddr: 0x9710, symBinAddr: 0x10001A670, symSize: 0x30 }
  - { offsetInCU: 0x1A41F, offset: 0x452EA, size: 0x8, addend: 0x0, symName: __ZNKSt3__112__hash_tableINS_17__hash_value_typeINS_12basic_stringIcNS_11char_traitsIcEENS_9allocatorIcEEEEP4NodeEENS_22__unordered_map_hasherIS7_SA_NS_4hashIS7_EENS_8equal_toIS7_EELb1EEENS_21__unordered_map_equalIS7_SA_SF_SD_Lb1EEENS5_ISA_EEE12bucket_countB8ue170006Ev, symObjAddr: 0x9740, symBinAddr: 0x10001A6A0, symSize: 0x30 }
  - { offsetInCU: 0x1A445, offset: 0x45310, size: 0x8, addend: 0x0, symName: __ZNKSt3__110unique_ptrIA_PNS_16__hash_node_baseIPNS_11__hash_nodeINS_17__hash_value_typeINS_12basic_stringIcNS_11char_traitsIcEENS_9allocatorIcEEEEP4NodeEEPvEEEENS_25__bucket_list_deallocatorINS7_ISH_EEEEEixB8ue170006Em, symObjAddr: 0x9770, symBinAddr: 0x10001A6D0, symSize: 0x30 }
  - { offsetInCU: 0x1A47A, offset: 0x45345, size: 0x8, addend: 0x0, symName: __ZNKSt3__116__hash_node_baseIPNS_11__hash_nodeINS_17__hash_value_typeINS_12basic_stringIcNS_11char_traitsIcEENS_9allocatorIcEEEEP4NodeEEPvEEE6__hashB8ue170006Ev, symObjAddr: 0x97A0, symBinAddr: 0x10001A700, symSize: 0x20 }
  - { offsetInCU: 0x1A4A0, offset: 0x4536B, size: 0x8, addend: 0x0, symName: __ZNSt3__112__hash_tableINS_17__hash_value_typeINS_12basic_stringIcNS_11char_traitsIcEENS_9allocatorIcEEEEP4NodeEENS_22__unordered_map_hasherIS7_SA_NS_4hashIS7_EENS_8equal_toIS7_EELb1EEENS_21__unordered_map_equalIS7_SA_SF_SD_Lb1EEENS5_ISA_EEE6key_eqB8ue170006Ev, symObjAddr: 0x97C0, symBinAddr: 0x10001A720, symSize: 0x20 }
  - { offsetInCU: 0x1A4C6, offset: 0x45391, size: 0x8, addend: 0x0, symName: __ZNKSt3__121__unordered_map_equalINS_12basic_stringIcNS_11char_traitsIcEENS_9allocatorIcEEEENS_17__hash_value_typeIS6_P4NodeEENS_8equal_toIS6_EENS_4hashIS6_EELb1EEclB8ue170006ERKSA_RKS6_, symObjAddr: 0x97E0, symBinAddr: 0x10001A740, symSize: 0x40 }
  - { offsetInCU: 0x1A50A, offset: 0x453D5, size: 0x8, addend: 0x0, symName: __ZNSt3__112__hash_tableINS_17__hash_value_typeINS_12basic_stringIcNS_11char_traitsIcEENS_9allocatorIcEEEEP4NodeEENS_22__unordered_map_hasherIS7_SA_NS_4hashIS7_EENS_8equal_toIS7_EELb1EEENS_21__unordered_map_equalIS7_SA_SF_SD_Lb1EEENS5_ISA_EEE21__construct_node_hashIRKNS_21piecewise_construct_tEJNS_5tupleIJRKS7_EEENSP_IJEEEEEENS_10unique_ptrINS_11__hash_nodeISA_PvEENS_22__hash_node_destructorINS5_ISX_EEEEEEmOT_DpOT0_, symObjAddr: 0x9840, symBinAddr: 0x10001A780, symSize: 0x150 }
  - { offsetInCU: 0x1A5A6, offset: 0x45471, size: 0x8, addend: 0x0, symName: __ZNSt3__112__hash_tableINS_17__hash_value_typeINS_12basic_stringIcNS_11char_traitsIcEENS_9allocatorIcEEEEP4NodeEENS_22__unordered_map_hasherIS7_SA_NS_4hashIS7_EENS_8equal_toIS7_EELb1EEENS_21__unordered_map_equalIS7_SA_SF_SD_Lb1EEENS5_ISA_EEE4sizeB8ue170006Ev, symObjAddr: 0x9990, symBinAddr: 0x10001A8D0, symSize: 0x20 }
  - { offsetInCU: 0x1A5CC, offset: 0x45497, size: 0x8, addend: 0x0, symName: __ZNSt3__112__hash_tableINS_17__hash_value_typeINS_12basic_stringIcNS_11char_traitsIcEENS_9allocatorIcEEEEP4NodeEENS_22__unordered_map_hasherIS7_SA_NS_4hashIS7_EENS_8equal_toIS7_EELb1EEENS_21__unordered_map_equalIS7_SA_SF_SD_Lb1EEENS5_ISA_EEE15max_load_factorB8ue170006Ev, symObjAddr: 0x99B0, symBinAddr: 0x10001A8F0, symSize: 0x20 }
  - { offsetInCU: 0x1A5F2, offset: 0x454BD, size: 0x8, addend: 0x0, symName: __ZNSt3__112__hash_tableINS_17__hash_value_typeINS_12basic_stringIcNS_11char_traitsIcEENS_9allocatorIcEEEEP4NodeEENS_22__unordered_map_hasherIS7_SA_NS_4hashIS7_EENS_8equal_toIS7_EELb1EEENS_21__unordered_map_equalIS7_SA_SF_SD_Lb1EEENS5_ISA_EEE15__rehash_uniqueB8ue170006Em, symObjAddr: 0x99D0, symBinAddr: 0x10001A910, symSize: 0x30 }
  - { offsetInCU: 0x1A627, offset: 0x454F2, size: 0x8, addend: 0x0, symName: __ZNSt3__116__hash_node_baseIPNS_11__hash_nodeINS_17__hash_value_typeINS_12basic_stringIcNS_11char_traitsIcEENS_9allocatorIcEEEEP4NodeEEPvEEE5__ptrB8ue170006Ev, symObjAddr: 0x9A20, symBinAddr: 0x10001A940, symSize: 0x20 }
  - { offsetInCU: 0x1A64D, offset: 0x45518, size: 0x8, addend: 0x0, symName: __ZNKSt3__110unique_ptrINS_11__hash_nodeINS_17__hash_value_typeINS_12basic_stringIcNS_11char_traitsIcEENS_9allocatorIcEEEEP4NodeEEPvEENS_22__hash_node_destructorINS6_ISD_EEEEEptB8ue170006Ev, symObjAddr: 0x9A40, symBinAddr: 0x10001A960, symSize: 0x20 }
  - { offsetInCU: 0x1A673, offset: 0x4553E, size: 0x8, addend: 0x0, symName: __ZNKSt3__110unique_ptrINS_11__hash_nodeINS_17__hash_value_typeINS_12basic_stringIcNS_11char_traitsIcEENS_9allocatorIcEEEEP4NodeEEPvEENS_22__hash_node_destructorINS6_ISD_EEEEE3getB8ue170006Ev, symObjAddr: 0x9A60, symBinAddr: 0x10001A980, symSize: 0x20 }
  - { offsetInCU: 0x1A699, offset: 0x45564, size: 0x8, addend: 0x0, symName: __ZNSt3__110unique_ptrINS_11__hash_nodeINS_17__hash_value_typeINS_12basic_stringIcNS_11char_traitsIcEENS_9allocatorIcEEEEP4NodeEEPvEENS_22__hash_node_destructorINS6_ISD_EEEEE7releaseB8ue170006Ev, symObjAddr: 0x9A80, symBinAddr: 0x10001A9A0, symSize: 0x40 }
  - { offsetInCU: 0x1A6CE, offset: 0x45599, size: 0x8, addend: 0x0, symName: __ZNSt3__110unique_ptrINS_11__hash_nodeINS_17__hash_value_typeINS_12basic_stringIcNS_11char_traitsIcEENS_9allocatorIcEEEEP4NodeEEPvEENS_22__hash_node_destructorINS6_ISD_EEEEED1B8ue170006Ev, symObjAddr: 0x9AC0, symBinAddr: 0x10001A9E0, symSize: 0x20 }
  - { offsetInCU: 0x1A6FD, offset: 0x455C8, size: 0x8, addend: 0x0, symName: __ZNSt3__14pairINS_15__hash_iteratorIPNS_11__hash_nodeINS_17__hash_value_typeINS_12basic_stringIcNS_11char_traitsIcEENS_9allocatorIcEEEEP4NodeEEPvEEEEbEC1B8ue170006ISG_RbLSD_0EEEOT_OT0_, symObjAddr: 0x9B10, symBinAddr: 0x10001AA00, symSize: 0x30 }
  - { offsetInCU: 0x1A75B, offset: 0x45626, size: 0x8, addend: 0x0, symName: __ZNSt3__117__compressed_pairImNS_22__unordered_map_hasherINS_12basic_stringIcNS_11char_traitsIcEENS_9allocatorIcEEEENS_17__hash_value_typeIS7_P4NodeEENS_4hashIS7_EENS_8equal_toIS7_EELb1EEEE6secondB8ue170006Ev, symObjAddr: 0x9B40, symBinAddr: 0x10001AA30, symSize: 0x20 }
  - { offsetInCU: 0x1A781, offset: 0x4564C, size: 0x8, addend: 0x0, symName: __ZNSt3__122__compressed_pair_elemINS_22__unordered_map_hasherINS_12basic_stringIcNS_11char_traitsIcEENS_9allocatorIcEEEENS_17__hash_value_typeIS7_P4NodeEENS_4hashIS7_EENS_8equal_toIS7_EELb1EEELi1ELb1EE5__getB8ue170006Ev, symObjAddr: 0x9B60, symBinAddr: 0x10001AA50, symSize: 0x10 }
  - { offsetInCU: 0x1A7A7, offset: 0x45672, size: 0x8, addend: 0x0, symName: __ZNKSt3__110unique_ptrIA_PNS_16__hash_node_baseIPNS_11__hash_nodeINS_17__hash_value_typeINS_12basic_stringIcNS_11char_traitsIcEENS_9allocatorIcEEEEP4NodeEEPvEEEENS_25__bucket_list_deallocatorINS7_ISH_EEEEE11get_deleterB8ue170006Ev, symObjAddr: 0x9B70, symBinAddr: 0x10001AA60, symSize: 0x20 }
  - { offsetInCU: 0x1A7CD, offset: 0x45698, size: 0x8, addend: 0x0, symName: __ZNKSt3__125__bucket_list_deallocatorINS_9allocatorIPNS_16__hash_node_baseIPNS_11__hash_nodeINS_17__hash_value_typeINS_12basic_stringIcNS_11char_traitsIcEENS1_IcEEEEP4NodeEEPvEEEEEEE4sizeB8ue170006Ev, symObjAddr: 0x9B90, symBinAddr: 0x10001AA80, symSize: 0x20 }
  - { offsetInCU: 0x1A7F3, offset: 0x456BE, size: 0x8, addend: 0x0, symName: __ZNKSt3__117__compressed_pairIPPNS_16__hash_node_baseIPNS_11__hash_nodeINS_17__hash_value_typeINS_12basic_stringIcNS_11char_traitsIcEENS_9allocatorIcEEEEP4NodeEEPvEEEENS_25__bucket_list_deallocatorINS7_ISH_EEEEE6secondB8ue170006Ev, symObjAddr: 0x9BB0, symBinAddr: 0x10001AAA0, symSize: 0x20 }
  - { offsetInCU: 0x1A819, offset: 0x456E4, size: 0x8, addend: 0x0, symName: __ZNKSt3__122__compressed_pair_elemINS_25__bucket_list_deallocatorINS_9allocatorIPNS_16__hash_node_baseIPNS_11__hash_nodeINS_17__hash_value_typeINS_12basic_stringIcNS_11char_traitsIcEENS2_IcEEEEP4NodeEEPvEEEEEEEELi1ELb0EE5__getB8ue170006Ev, symObjAddr: 0x9BD0, symBinAddr: 0x10001AAC0, symSize: 0x10 }
  - { offsetInCU: 0x1A83F, offset: 0x4570A, size: 0x8, addend: 0x0, symName: __ZNKSt3__117__compressed_pairImNS_9allocatorIPNS_16__hash_node_baseIPNS_11__hash_nodeINS_17__hash_value_typeINS_12basic_stringIcNS_11char_traitsIcEENS1_IcEEEEP4NodeEEPvEEEEEEE5firstB8ue170006Ev, symObjAddr: 0x9BE0, symBinAddr: 0x10001AAD0, symSize: 0x20 }
  - { offsetInCU: 0x1A865, offset: 0x45730, size: 0x8, addend: 0x0, symName: __ZNKSt3__117__compressed_pairIPPNS_16__hash_node_baseIPNS_11__hash_nodeINS_17__hash_value_typeINS_12basic_stringIcNS_11char_traitsIcEENS_9allocatorIcEEEEP4NodeEEPvEEEENS_25__bucket_list_deallocatorINS7_ISH_EEEEE5firstB8ue170006Ev, symObjAddr: 0x9C00, symBinAddr: 0x10001AAF0, symSize: 0x20 }
  - { offsetInCU: 0x1A88B, offset: 0x45756, size: 0x8, addend: 0x0, symName: __ZNKSt3__122__compressed_pair_elemIPPNS_16__hash_node_baseIPNS_11__hash_nodeINS_17__hash_value_typeINS_12basic_stringIcNS_11char_traitsIcEENS_9allocatorIcEEEEP4NodeEEPvEEEELi0ELb0EE5__getB8ue170006Ev, symObjAddr: 0x9C20, symBinAddr: 0x10001AB10, symSize: 0x10 }
  - { offsetInCU: 0x1A8B1, offset: 0x4577C, size: 0x8, addend: 0x0, symName: __ZNSt3__117__compressed_pairIfNS_21__unordered_map_equalINS_12basic_stringIcNS_11char_traitsIcEENS_9allocatorIcEEEENS_17__hash_value_typeIS7_P4NodeEENS_8equal_toIS7_EENS_4hashIS7_EELb1EEEE6secondB8ue170006Ev, symObjAddr: 0x9C30, symBinAddr: 0x10001AB20, symSize: 0x20 }
  - { offsetInCU: 0x1A8D7, offset: 0x457A2, size: 0x8, addend: 0x0, symName: __ZNSt3__122__compressed_pair_elemINS_21__unordered_map_equalINS_12basic_stringIcNS_11char_traitsIcEENS_9allocatorIcEEEENS_17__hash_value_typeIS7_P4NodeEENS_8equal_toIS7_EENS_4hashIS7_EELb1EEELi1ELb1EE5__getB8ue170006Ev, symObjAddr: 0x9C50, symBinAddr: 0x10001AB40, symSize: 0x10 }
  - { offsetInCU: 0x1A8FD, offset: 0x457C8, size: 0x8, addend: 0x0, symName: __ZNKSt3__117__hash_value_typeINS_12basic_stringIcNS_11char_traitsIcEENS_9allocatorIcEEEEP4NodeE11__get_valueB8ue170006Ev, symObjAddr: 0x9C60, symBinAddr: 0x10001AB50, symSize: 0x10 }
  - { offsetInCU: 0x1A923, offset: 0x457EE, size: 0x8, addend: 0x0, symName: __ZNSt3__112__hash_tableINS_17__hash_value_typeINS_12basic_stringIcNS_11char_traitsIcEENS_9allocatorIcEEEEP4NodeEENS_22__unordered_map_hasherIS7_SA_NS_4hashIS7_EENS_8equal_toIS7_EELb1EEENS_21__unordered_map_equalIS7_SA_SF_SD_Lb1EEENS5_ISA_EEE12__node_allocB8ue170006Ev, symObjAddr: 0x9C80, symBinAddr: 0x10001AB60, symSize: 0x20 }
  - { offsetInCU: 0x1A949, offset: 0x45814, size: 0x8, addend: 0x0, symName: __ZNSt3__116allocator_traitsINS_9allocatorINS_11__hash_nodeINS_17__hash_value_typeINS_12basic_stringIcNS_11char_traitsIcEENS1_IcEEEEP4NodeEEPvEEEEE8allocateB8ue170006ERSE_m, symObjAddr: 0x9CA0, symBinAddr: 0x10001AB80, symSize: 0x30 }
  - { offsetInCU: 0x1A97C, offset: 0x45847, size: 0x8, addend: 0x0, symName: __ZNSt3__122__hash_node_destructorINS_9allocatorINS_11__hash_nodeINS_17__hash_value_typeINS_12basic_stringIcNS_11char_traitsIcEENS1_IcEEEEP4NodeEEPvEEEEEC1B8ue170006ERSE_b, symObjAddr: 0x9CD0, symBinAddr: 0x10001ABB0, symSize: 0x40 }
  - { offsetInCU: 0x1A9C9, offset: 0x45894, size: 0x8, addend: 0x0, symName: __ZNSt3__110unique_ptrINS_11__hash_nodeINS_17__hash_value_typeINS_12basic_stringIcNS_11char_traitsIcEENS_9allocatorIcEEEEP4NodeEEPvEENS_22__hash_node_destructorINS6_ISD_EEEEEC1B8ue170006ILb1EvEEPSD_NS_16__dependent_typeINS_27__unique_ptr_deleter_sfinaeISG_EEXT_EE20__good_rval_ref_typeE, symObjAddr: 0x9D10, symBinAddr: 0x10001ABF0, symSize: 0x30 }
  - { offsetInCU: 0x1AA1A, offset: 0x458E5, size: 0x8, addend: 0x0, symName: __ZNSt3__116allocator_traitsINS_9allocatorINS_11__hash_nodeINS_17__hash_value_typeINS_12basic_stringIcNS_11char_traitsIcEENS1_IcEEEEP4NodeEEPvEEEEE9constructB8ue170006INS_4pairIKS8_SA_EEJRKNS_21piecewise_construct_tENS_5tupleIJRSI_EEENSN_IJEEEEvEEvRSE_PT_DpOT0_, symObjAddr: 0x9D40, symBinAddr: 0x10001AC20, symSize: 0x40 }
  - { offsetInCU: 0x1AA99, offset: 0x45964, size: 0x8, addend: 0x0, symName: __ZNSt3__122__hash_key_value_typesINS_17__hash_value_typeINS_12basic_stringIcNS_11char_traitsIcEENS_9allocatorIcEEEEP4NodeEEE9__get_ptrB8ue170006ERSA_, symObjAddr: 0x9D80, symBinAddr: 0x10001AC60, symSize: 0x20 }
  - { offsetInCU: 0x1AABC, offset: 0x45987, size: 0x8, addend: 0x0, symName: __ZNSt3__110unique_ptrINS_11__hash_nodeINS_17__hash_value_typeINS_12basic_stringIcNS_11char_traitsIcEENS_9allocatorIcEEEEP4NodeEEPvEENS_22__hash_node_destructorINS6_ISD_EEEEE11get_deleterB8ue170006Ev, symObjAddr: 0x9DA0, symBinAddr: 0x10001AC80, symSize: 0x20 }
  - { offsetInCU: 0x1AAE2, offset: 0x459AD, size: 0x8, addend: 0x0, symName: __ZNSt3__117__compressed_pairINS_16__hash_node_baseIPNS_11__hash_nodeINS_17__hash_value_typeINS_12basic_stringIcNS_11char_traitsIcEENS_9allocatorIcEEEEP4NodeEEPvEEEENS7_ISE_EEE6secondB8ue170006Ev, symObjAddr: 0x9DC0, symBinAddr: 0x10001ACA0, symSize: 0x20 }
  - { offsetInCU: 0x1AB08, offset: 0x459D3, size: 0x8, addend: 0x0, symName: __ZNSt3__122__compressed_pair_elemINS_9allocatorINS_11__hash_nodeINS_17__hash_value_typeINS_12basic_stringIcNS_11char_traitsIcEENS1_IcEEEEP4NodeEEPvEEEELi1ELb1EE5__getB8ue170006Ev, symObjAddr: 0x9DE0, symBinAddr: 0x10001ACC0, symSize: 0x10 }
  - { offsetInCU: 0x1AB2E, offset: 0x459F9, size: 0x8, addend: 0x0, symName: __ZNSt3__19allocatorINS_11__hash_nodeINS_17__hash_value_typeINS_12basic_stringIcNS_11char_traitsIcEENS0_IcEEEEP4NodeEEPvEEE8allocateB8ue170006Em, symObjAddr: 0x9DF0, symBinAddr: 0x10001ACD0, symSize: 0x50 }
  - { offsetInCU: 0x1AB6C, offset: 0x45A37, size: 0x8, addend: 0x0, symName: __ZNSt3__116allocator_traitsINS_9allocatorINS_11__hash_nodeINS_17__hash_value_typeINS_12basic_stringIcNS_11char_traitsIcEENS1_IcEEEEP4NodeEEPvEEEEE8max_sizeB8ue170006ISE_vEEmRKSE_, symObjAddr: 0x9E40, symBinAddr: 0x10001AD20, symSize: 0x20 }
  - { offsetInCU: 0x1AB9A, offset: 0x45A65, size: 0x8, addend: 0x0, symName: __ZNKSt3__19allocatorINS_11__hash_nodeINS_17__hash_value_typeINS_12basic_stringIcNS_11char_traitsIcEENS0_IcEEEEP4NodeEEPvEEE8max_sizeB8ue170006Ev, symObjAddr: 0x9E60, symBinAddr: 0x10001AD40, symSize: 0x20 }
  - { offsetInCU: 0x1ABC0, offset: 0x45A8B, size: 0x8, addend: 0x0, symName: __ZNSt3__122__hash_node_destructorINS_9allocatorINS_11__hash_nodeINS_17__hash_value_typeINS_12basic_stringIcNS_11char_traitsIcEENS1_IcEEEEP4NodeEEPvEEEEEC2B8ue170006ERSE_b, symObjAddr: 0x9E80, symBinAddr: 0x10001AD60, symSize: 0x30 }
  - { offsetInCU: 0x1AC08, offset: 0x45AD3, size: 0x8, addend: 0x0, symName: __ZNSt3__110unique_ptrINS_11__hash_nodeINS_17__hash_value_typeINS_12basic_stringIcNS_11char_traitsIcEENS_9allocatorIcEEEEP4NodeEEPvEENS_22__hash_node_destructorINS6_ISD_EEEEEC2B8ue170006ILb1EvEEPSD_NS_16__dependent_typeINS_27__unique_ptr_deleter_sfinaeISG_EEXT_EE20__good_rval_ref_typeE, symObjAddr: 0x9EB0, symBinAddr: 0x10001AD90, symSize: 0x40 }
  - { offsetInCU: 0x1AC59, offset: 0x45B24, size: 0x8, addend: 0x0, symName: __ZNSt3__117__compressed_pairIPNS_11__hash_nodeINS_17__hash_value_typeINS_12basic_stringIcNS_11char_traitsIcEENS_9allocatorIcEEEEP4NodeEEPvEENS_22__hash_node_destructorINS6_ISD_EEEEEC1B8ue170006IRSE_SH_EEOT_OT0_, symObjAddr: 0x9EF0, symBinAddr: 0x10001ADD0, symSize: 0x30 }
  - { offsetInCU: 0x1ACB1, offset: 0x45B7C, size: 0x8, addend: 0x0, symName: __ZNSt3__117__compressed_pairIPNS_11__hash_nodeINS_17__hash_value_typeINS_12basic_stringIcNS_11char_traitsIcEENS_9allocatorIcEEEEP4NodeEEPvEENS_22__hash_node_destructorINS6_ISD_EEEEEC2B8ue170006IRSE_SH_EEOT_OT0_, symObjAddr: 0x9F20, symBinAddr: 0x10001AE00, symSize: 0x40 }
  - { offsetInCU: 0x1AD09, offset: 0x45BD4, size: 0x8, addend: 0x0, symName: __ZNSt3__122__compressed_pair_elemIPNS_11__hash_nodeINS_17__hash_value_typeINS_12basic_stringIcNS_11char_traitsIcEENS_9allocatorIcEEEEP4NodeEEPvEELi0ELb0EEC2B8ue170006IRSE_vEEOT_, symObjAddr: 0x9F60, symBinAddr: 0x10001AE40, symSize: 0x20 }
  - { offsetInCU: 0x1AD4B, offset: 0x45C16, size: 0x8, addend: 0x0, symName: __ZNSt3__122__compressed_pair_elemINS_22__hash_node_destructorINS_9allocatorINS_11__hash_nodeINS_17__hash_value_typeINS_12basic_stringIcNS_11char_traitsIcEENS2_IcEEEEP4NodeEEPvEEEEEELi1ELb0EEC2B8ue170006ISG_vEEOT_, symObjAddr: 0x9F80, symBinAddr: 0x10001AE60, symSize: 0x30 }
  - { offsetInCU: 0x1AD8D, offset: 0x45C58, size: 0x8, addend: 0x0, symName: __ZNSt3__19allocatorINS_11__hash_nodeINS_17__hash_value_typeINS_12basic_stringIcNS_11char_traitsIcEENS0_IcEEEEP4NodeEEPvEEE9constructB8ue170006INS_4pairIKS7_S9_EEJRKNS_21piecewise_construct_tENS_5tupleIJRSG_EEENSL_IJEEEEEEvPT_DpOT0_, symObjAddr: 0x9FB0, symBinAddr: 0x10001AE90, symSize: 0x40 }
  - { offsetInCU: 0x1AE09, offset: 0x45CD4, size: 0x8, addend: 0x0, symName: __ZNSt3__14pairIKNS_12basic_stringIcNS_11char_traitsIcEENS_9allocatorIcEEEEP4NodeEC1B8ue170006IJRS7_EJEEENS_21piecewise_construct_tENS_5tupleIJDpT_EEENSE_IJDpT0_EEE, symObjAddr: 0x9FF0, symBinAddr: 0x10001AED0, symSize: 0x30 }
  - { offsetInCU: 0x1AE70, offset: 0x45D3B, size: 0x8, addend: 0x0, symName: __ZNSt3__14pairIKNS_12basic_stringIcNS_11char_traitsIcEENS_9allocatorIcEEEEP4NodeEC1B8ue170006IJRS7_EJEJLm0EEJEEENS_21piecewise_construct_tERNS_5tupleIJDpT_EEERNSE_IJDpT0_EEENS_15__tuple_indicesIJXspT1_EEEENSN_IJXspT2_EEEE, symObjAddr: 0xA020, symBinAddr: 0x10001AF00, symSize: 0x30 }
  - { offsetInCU: 0x1AEFD, offset: 0x45DC8, size: 0x8, addend: 0x0, symName: __ZNSt3__14pairIKNS_12basic_stringIcNS_11char_traitsIcEENS_9allocatorIcEEEEP4NodeEC2B8ue170006IJRS7_EJEJLm0EEJEEENS_21piecewise_construct_tERNS_5tupleIJDpT_EEERNSE_IJDpT0_EEENS_15__tuple_indicesIJXspT1_EEEENSN_IJXspT2_EEEE, symObjAddr: 0xA050, symBinAddr: 0x10001AF30, symSize: 0x50 }
  - { offsetInCU: 0x1AF8A, offset: 0x45E55, size: 0x8, addend: 0x0, symName: __ZNSt3__117__compressed_pairIPNS_11__hash_nodeINS_17__hash_value_typeINS_12basic_stringIcNS_11char_traitsIcEENS_9allocatorIcEEEEP4NodeEEPvEENS_22__hash_node_destructorINS6_ISD_EEEEE6secondB8ue170006Ev, symObjAddr: 0xA0A0, symBinAddr: 0x10001AF80, symSize: 0x20 }
  - { offsetInCU: 0x1AFB0, offset: 0x45E7B, size: 0x8, addend: 0x0, symName: __ZNSt3__122__compressed_pair_elemINS_22__hash_node_destructorINS_9allocatorINS_11__hash_nodeINS_17__hash_value_typeINS_12basic_stringIcNS_11char_traitsIcEENS2_IcEEEEP4NodeEEPvEEEEEELi1ELb0EE5__getB8ue170006Ev, symObjAddr: 0xA0C0, symBinAddr: 0x10001AFA0, symSize: 0x10 }
  - { offsetInCU: 0x1AFD6, offset: 0x45EA1, size: 0x8, addend: 0x0, symName: __ZNSt3__117__compressed_pairImNS_22__unordered_map_hasherINS_12basic_stringIcNS_11char_traitsIcEENS_9allocatorIcEEEENS_17__hash_value_typeIS7_P4NodeEENS_4hashIS7_EENS_8equal_toIS7_EELb1EEEE5firstB8ue170006Ev, symObjAddr: 0xA0D0, symBinAddr: 0x10001AFB0, symSize: 0x20 }
  - { offsetInCU: 0x1AFFC, offset: 0x45EC7, size: 0x8, addend: 0x0, symName: __ZNSt3__117__compressed_pairIfNS_21__unordered_map_equalINS_12basic_stringIcNS_11char_traitsIcEENS_9allocatorIcEEEENS_17__hash_value_typeIS7_P4NodeEENS_8equal_toIS7_EENS_4hashIS7_EELb1EEEE5firstB8ue170006Ev, symObjAddr: 0xA0F0, symBinAddr: 0x10001AFD0, symSize: 0x20 }
  - { offsetInCU: 0x1B022, offset: 0x45EED, size: 0x8, addend: 0x0, symName: __ZNSt3__112__hash_tableINS_17__hash_value_typeINS_12basic_stringIcNS_11char_traitsIcEENS_9allocatorIcEEEEP4NodeEENS_22__unordered_map_hasherIS7_SA_NS_4hashIS7_EENS_8equal_toIS7_EELb1EEENS_21__unordered_map_equalIS7_SA_SF_SD_Lb1EEENS5_ISA_EEE8__rehashILb1EEEvm, symObjAddr: 0xA110, symBinAddr: 0x10001AFF0, symSize: 0x230 }
  - { offsetInCU: 0x1B072, offset: 0x45F3D, size: 0x8, addend: 0x0, symName: __ZNSt3__112__hash_tableINS_17__hash_value_typeINS_12basic_stringIcNS_11char_traitsIcEENS_9allocatorIcEEEEP4NodeEENS_22__unordered_map_hasherIS7_SA_NS_4hashIS7_EENS_8equal_toIS7_EELb1EEENS_21__unordered_map_equalIS7_SA_SF_SD_Lb1EEENS5_ISA_EEE11__do_rehashILb1EEEvm, symObjAddr: 0xA340, symBinAddr: 0x10001B220, symSize: 0x250 }
  - { offsetInCU: 0x1B159, offset: 0x46024, size: 0x8, addend: 0x0, symName: __ZNSt3__110unique_ptrIA_PNS_16__hash_node_baseIPNS_11__hash_nodeINS_17__hash_value_typeINS_12basic_stringIcNS_11char_traitsIcEENS_9allocatorIcEEEEP4NodeEEPvEEEENS_25__bucket_list_deallocatorINS7_ISH_EEEEE11get_deleterB8ue170006Ev, symObjAddr: 0xA590, symBinAddr: 0x10001B470, symSize: 0x20 }
  - { offsetInCU: 0x1B17F, offset: 0x4604A, size: 0x8, addend: 0x0, symName: __ZNSt3__125__bucket_list_deallocatorINS_9allocatorIPNS_16__hash_node_baseIPNS_11__hash_nodeINS_17__hash_value_typeINS_12basic_stringIcNS_11char_traitsIcEENS1_IcEEEEP4NodeEEPvEEEEEEE7__allocB8ue170006Ev, symObjAddr: 0xA5B0, symBinAddr: 0x10001B490, symSize: 0x20 }
  - { offsetInCU: 0x1B1A5, offset: 0x46070, size: 0x8, addend: 0x0, symName: __ZNSt3__110unique_ptrIA_PNS_16__hash_node_baseIPNS_11__hash_nodeINS_17__hash_value_typeINS_12basic_stringIcNS_11char_traitsIcEENS_9allocatorIcEEEEP4NodeEEPvEEEENS_25__bucket_list_deallocatorINS7_ISH_EEEEE5resetB8ue170006IPSH_EENS_9enable_ifIXsr28_CheckArrayPointerConversionIT_EE5valueEvE4typeESQ_, symObjAddr: 0xA5D0, symBinAddr: 0x10001B4B0, symSize: 0x70 }
  - { offsetInCU: 0x1B1F2, offset: 0x460BD, size: 0x8, addend: 0x0, symName: __ZNSt3__116allocator_traitsINS_9allocatorIPNS_16__hash_node_baseIPNS_11__hash_nodeINS_17__hash_value_typeINS_12basic_stringIcNS_11char_traitsIcEENS1_IcEEEEP4NodeEEPvEEEEEEE8allocateB8ue170006ERSI_m, symObjAddr: 0xA640, symBinAddr: 0x10001B520, symSize: 0x30 }
  - { offsetInCU: 0x1B225, offset: 0x460F0, size: 0x8, addend: 0x0, symName: __ZNSt3__125__bucket_list_deallocatorINS_9allocatorIPNS_16__hash_node_baseIPNS_11__hash_nodeINS_17__hash_value_typeINS_12basic_stringIcNS_11char_traitsIcEENS1_IcEEEEP4NodeEEPvEEEEEEE4sizeB8ue170006Ev, symObjAddr: 0xA670, symBinAddr: 0x10001B550, symSize: 0x20 }
  - { offsetInCU: 0x1B24B, offset: 0x46116, size: 0x8, addend: 0x0, symName: __ZNSt3__117__compressed_pairIPPNS_16__hash_node_baseIPNS_11__hash_nodeINS_17__hash_value_typeINS_12basic_stringIcNS_11char_traitsIcEENS_9allocatorIcEEEEP4NodeEEPvEEEENS_25__bucket_list_deallocatorINS7_ISH_EEEEE6secondB8ue170006Ev, symObjAddr: 0xA690, symBinAddr: 0x10001B570, symSize: 0x20 }
  - { offsetInCU: 0x1B271, offset: 0x4613C, size: 0x8, addend: 0x0, symName: __ZNSt3__122__compressed_pair_elemINS_25__bucket_list_deallocatorINS_9allocatorIPNS_16__hash_node_baseIPNS_11__hash_nodeINS_17__hash_value_typeINS_12basic_stringIcNS_11char_traitsIcEENS2_IcEEEEP4NodeEEPvEEEEEEEELi1ELb0EE5__getB8ue170006Ev, symObjAddr: 0xA6B0, symBinAddr: 0x10001B590, symSize: 0x10 }
  - { offsetInCU: 0x1B297, offset: 0x46162, size: 0x8, addend: 0x0, symName: __ZNSt3__117__compressed_pairImNS_9allocatorIPNS_16__hash_node_baseIPNS_11__hash_nodeINS_17__hash_value_typeINS_12basic_stringIcNS_11char_traitsIcEENS1_IcEEEEP4NodeEEPvEEEEEEE6secondB8ue170006Ev, symObjAddr: 0xA6C0, symBinAddr: 0x10001B5A0, symSize: 0x20 }
  - { offsetInCU: 0x1B2BD, offset: 0x46188, size: 0x8, addend: 0x0, symName: __ZNSt3__122__compressed_pair_elemINS_9allocatorIPNS_16__hash_node_baseIPNS_11__hash_nodeINS_17__hash_value_typeINS_12basic_stringIcNS_11char_traitsIcEENS1_IcEEEEP4NodeEEPvEEEEEELi1ELb1EE5__getB8ue170006Ev, symObjAddr: 0xA6E0, symBinAddr: 0x10001B5C0, symSize: 0x10 }
  - { offsetInCU: 0x1B2E3, offset: 0x461AE, size: 0x8, addend: 0x0, symName: __ZNSt3__117__compressed_pairIPPNS_16__hash_node_baseIPNS_11__hash_nodeINS_17__hash_value_typeINS_12basic_stringIcNS_11char_traitsIcEENS_9allocatorIcEEEEP4NodeEEPvEEEENS_25__bucket_list_deallocatorINS7_ISH_EEEEE5firstB8ue170006Ev, symObjAddr: 0xA6F0, symBinAddr: 0x10001B5D0, symSize: 0x20 }
  - { offsetInCU: 0x1B309, offset: 0x461D4, size: 0x8, addend: 0x0, symName: __ZNSt3__125__bucket_list_deallocatorINS_9allocatorIPNS_16__hash_node_baseIPNS_11__hash_nodeINS_17__hash_value_typeINS_12basic_stringIcNS_11char_traitsIcEENS1_IcEEEEP4NodeEEPvEEEEEEEclB8ue170006EPSH_, symObjAddr: 0xA710, symBinAddr: 0x10001B5F0, symSize: 0x50 }
  - { offsetInCU: 0x1B33E, offset: 0x46209, size: 0x8, addend: 0x0, symName: __ZNSt3__122__compressed_pair_elemIPPNS_16__hash_node_baseIPNS_11__hash_nodeINS_17__hash_value_typeINS_12basic_stringIcNS_11char_traitsIcEENS_9allocatorIcEEEEP4NodeEEPvEEEELi0ELb0EE5__getB8ue170006Ev, symObjAddr: 0xA760, symBinAddr: 0x10001B640, symSize: 0x10 }
  - { offsetInCU: 0x1B364, offset: 0x4622F, size: 0x8, addend: 0x0, symName: __ZNSt3__116allocator_traitsINS_9allocatorIPNS_16__hash_node_baseIPNS_11__hash_nodeINS_17__hash_value_typeINS_12basic_stringIcNS_11char_traitsIcEENS1_IcEEEEP4NodeEEPvEEEEEEE10deallocateB8ue170006ERSI_PSH_m, symObjAddr: 0xA770, symBinAddr: 0x10001B650, symSize: 0x30 }
  - { offsetInCU: 0x1B3A6, offset: 0x46271, size: 0x8, addend: 0x0, symName: __ZNSt3__19allocatorIPNS_16__hash_node_baseIPNS_11__hash_nodeINS_17__hash_value_typeINS_12basic_stringIcNS_11char_traitsIcEENS0_IcEEEEP4NodeEEPvEEEEE10deallocateB8ue170006EPSG_m, symObjAddr: 0xA7A0, symBinAddr: 0x10001B680, symSize: 0x40 }
  - { offsetInCU: 0x1B3E8, offset: 0x462B3, size: 0x8, addend: 0x0, symName: __ZNSt3__19allocatorIPNS_16__hash_node_baseIPNS_11__hash_nodeINS_17__hash_value_typeINS_12basic_stringIcNS_11char_traitsIcEENS0_IcEEEEP4NodeEEPvEEEEE8allocateB8ue170006Em, symObjAddr: 0xA7E0, symBinAddr: 0x10001B6C0, symSize: 0x50 }
  - { offsetInCU: 0x1B426, offset: 0x462F1, size: 0x8, addend: 0x0, symName: __ZNSt3__116allocator_traitsINS_9allocatorIPNS_16__hash_node_baseIPNS_11__hash_nodeINS_17__hash_value_typeINS_12basic_stringIcNS_11char_traitsIcEENS1_IcEEEEP4NodeEEPvEEEEEEE8max_sizeB8ue170006ISI_vEEmRKSI_, symObjAddr: 0xA830, symBinAddr: 0x10001B710, symSize: 0x20 }
  - { offsetInCU: 0x1B454, offset: 0x4631F, size: 0x8, addend: 0x0, symName: __ZNKSt3__19allocatorIPNS_16__hash_node_baseIPNS_11__hash_nodeINS_17__hash_value_typeINS_12basic_stringIcNS_11char_traitsIcEENS0_IcEEEEP4NodeEEPvEEEEE8max_sizeB8ue170006Ev, symObjAddr: 0xA850, symBinAddr: 0x10001B730, symSize: 0x20 }
  - { offsetInCU: 0x1B47A, offset: 0x46345, size: 0x8, addend: 0x0, symName: __ZNSt3__117__compressed_pairImNS_9allocatorIPNS_16__hash_node_baseIPNS_11__hash_nodeINS_17__hash_value_typeINS_12basic_stringIcNS_11char_traitsIcEENS1_IcEEEEP4NodeEEPvEEEEEEE5firstB8ue170006Ev, symObjAddr: 0xA870, symBinAddr: 0x10001B750, symSize: 0x20 }
  - { offsetInCU: 0x1B4A0, offset: 0x4636B, size: 0x8, addend: 0x0, symName: __ZNKSt3__117__compressed_pairIPNS_11__hash_nodeINS_17__hash_value_typeINS_12basic_stringIcNS_11char_traitsIcEENS_9allocatorIcEEEEP4NodeEEPvEENS_22__hash_node_destructorINS6_ISD_EEEEE5firstB8ue170006Ev, symObjAddr: 0xA8A0, symBinAddr: 0x10001B770, symSize: 0x20 }
  - { offsetInCU: 0x1B4C6, offset: 0x46391, size: 0x8, addend: 0x0, symName: __ZNKSt3__122__compressed_pair_elemIPNS_11__hash_nodeINS_17__hash_value_typeINS_12basic_stringIcNS_11char_traitsIcEENS_9allocatorIcEEEEP4NodeEEPvEELi0ELb0EE5__getB8ue170006Ev, symObjAddr: 0xA8C0, symBinAddr: 0x10001B790, symSize: 0x10 }
  - { offsetInCU: 0x1B4EC, offset: 0x463B7, size: 0x8, addend: 0x0, symName: __ZNSt3__117__compressed_pairIPNS_11__hash_nodeINS_17__hash_value_typeINS_12basic_stringIcNS_11char_traitsIcEENS_9allocatorIcEEEEP4NodeEEPvEENS_22__hash_node_destructorINS6_ISD_EEEEE5firstB8ue170006Ev, symObjAddr: 0xA8D0, symBinAddr: 0x10001B7A0, symSize: 0x20 }
  - { offsetInCU: 0x1B512, offset: 0x463DD, size: 0x8, addend: 0x0, symName: __ZNSt3__122__compressed_pair_elemIPNS_11__hash_nodeINS_17__hash_value_typeINS_12basic_stringIcNS_11char_traitsIcEENS_9allocatorIcEEEEP4NodeEEPvEELi0ELb0EE5__getB8ue170006Ev, symObjAddr: 0xA8F0, symBinAddr: 0x10001B7C0, symSize: 0x10 }
  - { offsetInCU: 0x1B538, offset: 0x46403, size: 0x8, addend: 0x0, symName: __ZNSt3__110unique_ptrINS_11__hash_nodeINS_17__hash_value_typeINS_12basic_stringIcNS_11char_traitsIcEENS_9allocatorIcEEEEP4NodeEEPvEENS_22__hash_node_destructorINS6_ISD_EEEEED2B8ue170006Ev, symObjAddr: 0xA900, symBinAddr: 0x10001B7D0, symSize: 0x20 }
  - { offsetInCU: 0x1B562, offset: 0x4642D, size: 0x8, addend: 0x0, symName: __ZNSt3__110unique_ptrINS_11__hash_nodeINS_17__hash_value_typeINS_12basic_stringIcNS_11char_traitsIcEENS_9allocatorIcEEEEP4NodeEEPvEENS_22__hash_node_destructorINS6_ISD_EEEEE5resetB8ue170006EPSD_, symObjAddr: 0xA920, symBinAddr: 0x10001B7F0, symSize: 0x70 }
  - { offsetInCU: 0x1B5A6, offset: 0x46471, size: 0x8, addend: 0x0, symName: __ZNSt3__122__hash_node_destructorINS_9allocatorINS_11__hash_nodeINS_17__hash_value_typeINS_12basic_stringIcNS_11char_traitsIcEENS1_IcEEEEP4NodeEEPvEEEEEclB8ue170006EPSD_, symObjAddr: 0xA990, symBinAddr: 0x10001B860, symSize: 0x90 }
  - { offsetInCU: 0x1B5DB, offset: 0x464A6, size: 0x8, addend: 0x0, symName: __ZNSt3__116allocator_traitsINS_9allocatorINS_11__hash_nodeINS_17__hash_value_typeINS_12basic_stringIcNS_11char_traitsIcEENS1_IcEEEEP4NodeEEPvEEEEE7destroyB8ue170006INS_4pairIKS8_SA_EEvvEEvRSE_PT_, symObjAddr: 0xAA20, symBinAddr: 0x10001B8F0, symSize: 0x20 }
  - { offsetInCU: 0x1B615, offset: 0x464E0, size: 0x8, addend: 0x0, symName: __ZNSt3__116allocator_traitsINS_9allocatorINS_11__hash_nodeINS_17__hash_value_typeINS_12basic_stringIcNS_11char_traitsIcEENS1_IcEEEEP4NodeEEPvEEEEE10deallocateB8ue170006ERSE_PSD_m, symObjAddr: 0xAA40, symBinAddr: 0x10001B910, symSize: 0x30 }
  - { offsetInCU: 0x1B657, offset: 0x46522, size: 0x8, addend: 0x0, symName: __ZNSt3__14pairIKNS_12basic_stringIcNS_11char_traitsIcEENS_9allocatorIcEEEEP4NodeED1Ev, symObjAddr: 0xAA70, symBinAddr: 0x10001B940, symSize: 0x20 }
  - { offsetInCU: 0x1B683, offset: 0x4654E, size: 0x8, addend: 0x0, symName: __ZNSt3__14pairIKNS_12basic_stringIcNS_11char_traitsIcEENS_9allocatorIcEEEEP4NodeED2Ev, symObjAddr: 0xAA90, symBinAddr: 0x10001B960, symSize: 0x20 }
  - { offsetInCU: 0x1B6AF, offset: 0x4657A, size: 0x8, addend: 0x0, symName: __ZNSt3__19allocatorINS_11__hash_nodeINS_17__hash_value_typeINS_12basic_stringIcNS_11char_traitsIcEENS0_IcEEEEP4NodeEEPvEEE10deallocateB8ue170006EPSC_m, symObjAddr: 0xAAB0, symBinAddr: 0x10001B980, symSize: 0x50 }
  - { offsetInCU: 0x1B6F1, offset: 0x465BC, size: 0x8, addend: 0x0, symName: __ZNSt3__14pairINS_15__hash_iteratorIPNS_11__hash_nodeINS_17__hash_value_typeINS_12basic_stringIcNS_11char_traitsIcEENS_9allocatorIcEEEEP4NodeEEPvEEEEbEC2B8ue170006ISG_RbLSD_0EEEOT_OT0_, symObjAddr: 0xAB20, symBinAddr: 0x10001B9D0, symSize: 0x30 }
  - { offsetInCU: 0x1B74F, offset: 0x4661A, size: 0x8, addend: 0x0, symName: __ZNSt3__112__hash_tableINS_17__hash_value_typeINS_12basic_stringIcNS_11char_traitsIcEENS_9allocatorIcEEEENS_6vectorI8typeEnumNS5_IS9_EEEEEENS_22__unordered_map_hasherIS7_SC_NS_4hashIS7_EENS_8equal_toIS7_EELb1EEENS_21__unordered_map_equalIS7_SC_SH_SF_Lb1EEENS5_ISC_EEE25__emplace_unique_key_argsIS7_JRKNS_21piecewise_construct_tENS_5tupleIJRKS7_EEENSR_IJEEEEEENS_4pairINS_15__hash_iteratorIPNS_11__hash_nodeISC_PvEEEEbEERKT_DpOT0_, symObjAddr: 0xAB60, symBinAddr: 0x10001BA00, symSize: 0x610 }
  - { offsetInCU: 0x1B858, offset: 0x46723, size: 0x8, addend: 0x0, symName: __ZNSt3__112__hash_tableINS_17__hash_value_typeINS_12basic_stringIcNS_11char_traitsIcEENS_9allocatorIcEEEENS_6vectorI8typeEnumNS5_IS9_EEEEEENS_22__unordered_map_hasherIS7_SC_NS_4hashIS7_EENS_8equal_toIS7_EELb1EEENS_21__unordered_map_equalIS7_SC_SH_SF_Lb1EEENS5_ISC_EEE21__construct_node_hashIRKNS_21piecewise_construct_tEJNS_5tupleIJRKS7_EEENSR_IJEEEEEENS_10unique_ptrINS_11__hash_nodeISC_PvEENS_22__hash_node_destructorINS5_ISZ_EEEEEEmOT_DpOT0_, symObjAddr: 0xB300, symBinAddr: 0x10001C010, symSize: 0x150 }
  - { offsetInCU: 0x1B8F9, offset: 0x467C4, size: 0x8, addend: 0x0, symName: __ZNSt3__116allocator_traitsINS_9allocatorINS_11__hash_nodeINS_17__hash_value_typeINS_12basic_stringIcNS_11char_traitsIcEENS1_IcEEEENS_6vectorI8typeEnumNS1_ISA_EEEEEEPvEEEEE9constructB8ue170006INS_4pairIKS8_SC_EEJRKNS_21piecewise_construct_tENS_5tupleIJRSK_EEENSP_IJEEEEvEEvRSG_PT_DpOT0_, symObjAddr: 0xB800, symBinAddr: 0x10001C160, symSize: 0x40 }
  - { offsetInCU: 0x1B982, offset: 0x4684D, size: 0x8, addend: 0x0, symName: __ZNSt3__19allocatorINS_11__hash_nodeINS_17__hash_value_typeINS_12basic_stringIcNS_11char_traitsIcEENS0_IcEEEENS_6vectorI8typeEnumNS0_IS9_EEEEEEPvEEE9constructB8ue170006INS_4pairIKS7_SB_EEJRKNS_21piecewise_construct_tENS_5tupleIJRSI_EEENSN_IJEEEEEEvPT_DpOT0_, symObjAddr: 0xBA70, symBinAddr: 0x10001C1A0, symSize: 0x40 }
  - { offsetInCU: 0x1B9FE, offset: 0x468C9, size: 0x8, addend: 0x0, symName: __ZNSt3__14pairIKNS_12basic_stringIcNS_11char_traitsIcEENS_9allocatorIcEEEENS_6vectorI8typeEnumNS4_IS9_EEEEEC1B8ue170006IJRS7_EJEEENS_21piecewise_construct_tENS_5tupleIJDpT_EEENSG_IJDpT0_EEE, symObjAddr: 0xBAB0, symBinAddr: 0x10001C1E0, symSize: 0x30 }
  - { offsetInCU: 0x1BA65, offset: 0x46930, size: 0x8, addend: 0x0, symName: __ZNSt3__14pairIKNS_12basic_stringIcNS_11char_traitsIcEENS_9allocatorIcEEEENS_6vectorI8typeEnumNS4_IS9_EEEEEC1B8ue170006IJRS7_EJEJLm0EEJEEENS_21piecewise_construct_tERNS_5tupleIJDpT_EEERNSG_IJDpT0_EEENS_15__tuple_indicesIJXspT1_EEEENSP_IJXspT2_EEEE, symObjAddr: 0xBAE0, symBinAddr: 0x10001C210, symSize: 0x30 }
  - { offsetInCU: 0x1BAF2, offset: 0x469BD, size: 0x8, addend: 0x0, symName: __ZNSt3__14pairIKNS_12basic_stringIcNS_11char_traitsIcEENS_9allocatorIcEEEENS_6vectorI8typeEnumNS4_IS9_EEEEEC2B8ue170006IJRS7_EJEJLm0EEJEEENS_21piecewise_construct_tERNS_5tupleIJDpT_EEERNSG_IJDpT0_EEENS_15__tuple_indicesIJXspT1_EEEENSP_IJXspT2_EEEE, symObjAddr: 0xBB10, symBinAddr: 0x10001C240, symSize: 0x50 }
  - { offsetInCU: 0x1BB7F, offset: 0x46A4A, size: 0x8, addend: 0x0, symName: __ZNSt3__16vectorI8typeEnumNS_9allocatorIS1_EEE19__copy_assign_allocB8ue170006ERKS4_, symObjAddr: 0xC620, symBinAddr: 0x10001C290, symSize: 0x30 }
  - { offsetInCU: 0x1BBB4, offset: 0x46A7F, size: 0x8, addend: 0x0, symName: __ZNSt3__16vectorI8typeEnumNS_9allocatorIS1_EEE6assignIPS1_Li0EEEvT_S7_, symObjAddr: 0xC650, symBinAddr: 0x10001C2C0, symSize: 0x60 }
  - { offsetInCU: 0x1BC09, offset: 0x46AD4, size: 0x8, addend: 0x0, symName: __ZNSt3__16vectorI8typeEnumNS_9allocatorIS1_EEE19__copy_assign_allocB8ue170006ERKS4_NS_17integral_constantIbLb0EEE, symObjAddr: 0xC6B0, symBinAddr: 0x10001C320, symSize: 0x10 }
  - { offsetInCU: 0x1BC45, offset: 0x46B10, size: 0x8, addend: 0x0, symName: __ZNSt3__16vectorI8typeEnumNS_9allocatorIS1_EEE18__assign_with_sizeB8ue170006IPS1_S6_EEvT_T0_l, symObjAddr: 0xC6C0, symBinAddr: 0x10001C330, symSize: 0x160 }
  - { offsetInCU: 0x1BCF7, offset: 0x46BC2, size: 0x8, addend: 0x0, symName: __ZNSt3__16vectorI8typeEnumNS_9allocatorIS1_EEE18__construct_at_endIPS1_S6_EEvT_T0_m, symObjAddr: 0xC910, symBinAddr: 0x10001C530, symSize: 0x90 }
  - { offsetInCU: 0x1BD6D, offset: 0x46C38, size: 0x8, addend: 0x0, symName: __ZNSt3__16vectorI8typeEnumNS_9allocatorIS1_EEE17__destruct_at_endB8ue170006EPS1_, symObjAddr: 0xC9E0, symBinAddr: 0x10001C600, symSize: 0x50 }
  - { offsetInCU: 0x1BDB1, offset: 0x46C7C, size: 0x8, addend: 0x0, symName: __ZNSt3__16vectorI8typeEnumNS_9allocatorIS1_EEE13__vdeallocateEv, symObjAddr: 0xCA30, symBinAddr: 0x10001C650, symSize: 0x90 }
  - { offsetInCU: 0x1BDD9, offset: 0x46CA4, size: 0x8, addend: 0x0, symName: __ZNSt3__16vectorI8typeEnumNS_9allocatorIS1_EEE11__vallocateB8ue170006Em, symObjAddr: 0xCAC0, symBinAddr: 0x10001C6E0, symSize: 0xA0 }
  - { offsetInCU: 0x1BE54, offset: 0x46D1F, size: 0x8, addend: 0x0, symName: __ZNSt3__14pairIP8typeEnumS2_EC1B8ue170006IS2_S2_LPv0EEEOT_OT0_, symObjAddr: 0xCEE0, symBinAddr: 0x10001C960, symSize: 0x30 }
  - { offsetInCU: 0x1BEB2, offset: 0x46D7D, size: 0x8, addend: 0x0, symName: __ZNSt3__14pairIP8typeEnumS2_EC2B8ue170006IS2_S2_LPv0EEEOT_OT0_, symObjAddr: 0xCF10, symBinAddr: 0x10001C990, symSize: 0x30 }
  - { offsetInCU: 0x1BF10, offset: 0x46DDB, size: 0x8, addend: 0x0, symName: __ZNSt3__118__unwrap_iter_implIP8typeEnumLb1EE8__unwrapB8ue170006ES2_, symObjAddr: 0xCF40, symBinAddr: 0x10001C9C0, symSize: 0x20 }
  - { offsetInCU: 0x1BF33, offset: 0x46DFE, size: 0x8, addend: 0x0, symName: __ZNSt3__118__unwrap_iter_implIP8typeEnumLb1EE8__rewrapB8ue170006ES2_S2_, symObjAddr: 0xCF70, symBinAddr: 0x10001C9E0, symSize: 0x50 }
  - { offsetInCU: 0x1BF6E, offset: 0x46E39, size: 0x8, addend: 0x0, symName: __ZNKSt3__114__copy_trivialclB8ue170006I8typeEnumS2_Li0EEENS_4pairIPT_PT0_EES5_S5_S7_, symObjAddr: 0xD100, symBinAddr: 0x10001CB20, symSize: 0x40 }
  - { offsetInCU: 0x1BFD6, offset: 0x46EA1, size: 0x8, addend: 0x0, symName: __ZNSt3__14pairIP8typeEnumS2_EC1B8ue170006IRS2_S2_LPv0EEEOT_OT0_, symObjAddr: 0xD260, symBinAddr: 0x10001CC80, symSize: 0x30 }
  - { offsetInCU: 0x1C034, offset: 0x46EFF, size: 0x8, addend: 0x0, symName: __ZNSt3__14pairIP8typeEnumS2_EC2B8ue170006IRS2_S2_LPv0EEEOT_OT0_, symObjAddr: 0xD290, symBinAddr: 0x10001CCB0, symSize: 0x30 }
  - { offsetInCU: 0x1C092, offset: 0x46F5D, size: 0x8, addend: 0x0, symName: __ZNKSt3__16vectorI8typeEnumNS_9allocatorIS1_EEE17__annotate_shrinkB8ue170006Em, symObjAddr: 0xD340, symBinAddr: 0x10001CCE0, symSize: 0xA0 }
  - { offsetInCU: 0x1C0C7, offset: 0x46F92, size: 0x8, addend: 0x0, symName: __ZNSt3__16vectorI8typeEnumNS_9allocatorIS1_EEE5clearB8ue170006Ev, symObjAddr: 0xD460, symBinAddr: 0x10001CD80, symSize: 0x40 }
  - { offsetInCU: 0x1C106, offset: 0x46FD1, size: 0x8, addend: 0x0, symName: __ZNSt3__16vectorIP4NodeNS_9allocatorIS2_EEE9__end_capB8ue170006Ev, symObjAddr: 0xDB30, symBinAddr: 0x10001CDE0, symSize: 0x20 }
  - { offsetInCU: 0x1C12C, offset: 0x46FF7, size: 0x8, addend: 0x0, symName: __ZNSt3__16vectorIP4NodeNS_9allocatorIS2_EEE22__construct_one_at_endB8ue170006IJRKS2_EEEvDpOT_, symObjAddr: 0xDB50, symBinAddr: 0x10001CE00, symSize: 0x90 }
  - { offsetInCU: 0x1C17B, offset: 0x47046, size: 0x8, addend: 0x0, symName: __ZNSt3__16vectorIP4NodeNS_9allocatorIS2_EEE21__push_back_slow_pathIRKS2_EEvOT_, symObjAddr: 0xDBE0, symBinAddr: 0x10001CE90, symSize: 0xD0 }
  - { offsetInCU: 0x1C1D9, offset: 0x470A4, size: 0x8, addend: 0x0, symName: __ZNSt3__117__compressed_pairIPP4NodeNS_9allocatorIS2_EEE5firstB8ue170006Ev, symObjAddr: 0xDCB0, symBinAddr: 0x10001CF60, symSize: 0x20 }
  - { offsetInCU: 0x1C1FF, offset: 0x470CA, size: 0x8, addend: 0x0, symName: __ZNSt3__122__compressed_pair_elemIPP4NodeLi0ELb0EE5__getB8ue170006Ev, symObjAddr: 0xDCD0, symBinAddr: 0x10001CF80, symSize: 0x10 }
  - { offsetInCU: 0x1C23E, offset: 0x47109, size: 0x8, addend: 0x0, symName: __ZNSt3__16vectorIP4NodeNS_9allocatorIS2_EEE21_ConstructTransactionC1B8ue170006ERS5_m, symObjAddr: 0xDCE0, symBinAddr: 0x10001CF90, symSize: 0x30 }
  - { offsetInCU: 0x1C286, offset: 0x47151, size: 0x8, addend: 0x0, symName: __ZNSt3__116allocator_traitsINS_9allocatorIP4NodeEEE9constructB8ue170006IS3_JRKS3_EvEEvRS4_PT_DpOT0_, symObjAddr: 0xDD10, symBinAddr: 0x10001CFC0, symSize: 0x30 }
  - { offsetInCU: 0x1C2DD, offset: 0x471A8, size: 0x8, addend: 0x0, symName: __ZNSt3__16vectorIP4NodeNS_9allocatorIS2_EEE7__allocB8ue170006Ev, symObjAddr: 0xDD40, symBinAddr: 0x10001CFF0, symSize: 0x20 }
  - { offsetInCU: 0x1C303, offset: 0x471CE, size: 0x8, addend: 0x0, symName: __ZNSt3__16vectorIP4NodeNS_9allocatorIS2_EEE21_ConstructTransactionD1B8ue170006Ev, symObjAddr: 0xDD70, symBinAddr: 0x10001D020, symSize: 0x20 }
  - { offsetInCU: 0x1C32D, offset: 0x471F8, size: 0x8, addend: 0x0, symName: __ZNSt3__16vectorIP4NodeNS_9allocatorIS2_EEE21_ConstructTransactionC2B8ue170006ERS5_m, symObjAddr: 0xDD90, symBinAddr: 0x10001D040, symSize: 0x40 }
  - { offsetInCU: 0x1C375, offset: 0x47240, size: 0x8, addend: 0x0, symName: __ZNSt3__19allocatorIP4NodeE9constructB8ue170006IS2_JRKS2_EEEvPT_DpOT0_, symObjAddr: 0xDDD0, symBinAddr: 0x10001D080, symSize: 0x20 }
  - { offsetInCU: 0x1C3CB, offset: 0x47296, size: 0x8, addend: 0x0, symName: __ZNSt3__117__compressed_pairIPP4NodeNS_9allocatorIS2_EEE6secondB8ue170006Ev, symObjAddr: 0xDDF0, symBinAddr: 0x10001D0A0, symSize: 0x20 }
  - { offsetInCU: 0x1C3F1, offset: 0x472BC, size: 0x8, addend: 0x0, symName: __ZNSt3__122__compressed_pair_elemINS_9allocatorIP4NodeEELi1ELb1EE5__getB8ue170006Ev, symObjAddr: 0xDE10, symBinAddr: 0x10001D0C0, symSize: 0x10 }
  - { offsetInCU: 0x1C417, offset: 0x472E2, size: 0x8, addend: 0x0, symName: __ZNSt3__16vectorIP4NodeNS_9allocatorIS2_EEE21_ConstructTransactionD2B8ue170006Ev, symObjAddr: 0xDE20, symBinAddr: 0x10001D0D0, symSize: 0x20 }
  - { offsetInCU: 0x1C441, offset: 0x4730C, size: 0x8, addend: 0x0, symName: __ZNKSt3__16vectorIP4NodeNS_9allocatorIS2_EEE11__recommendB8ue170006Em, symObjAddr: 0xDE40, symBinAddr: 0x10001D0F0, symSize: 0xA0 }
  - { offsetInCU: 0x1C496, offset: 0x47361, size: 0x8, addend: 0x0, symName: __ZNSt3__114__split_bufferIP4NodeRNS_9allocatorIS2_EEEC1EmmS5_, symObjAddr: 0xDEE0, symBinAddr: 0x10001D190, symSize: 0x40 }
  - { offsetInCU: 0x1C4EC, offset: 0x473B7, size: 0x8, addend: 0x0, symName: __ZNSt3__114__split_bufferIP4NodeRNS_9allocatorIS2_EEED1Ev, symObjAddr: 0xE040, symBinAddr: 0x10001D2F0, symSize: 0x20 }
  - { offsetInCU: 0x1C518, offset: 0x473E3, size: 0x8, addend: 0x0, symName: __ZNKSt3__16vectorIP4NodeNS_9allocatorIS2_EEE8max_sizeEv, symObjAddr: 0xE060, symBinAddr: 0x10001D310, symSize: 0x60 }
  - { offsetInCU: 0x1C540, offset: 0x4740B, size: 0x8, addend: 0x0, symName: __ZNKSt3__16vectorIP4NodeNS_9allocatorIS2_EEE20__throw_length_errorB8ue170006Ev, symObjAddr: 0xE0C0, symBinAddr: 0x10001D370, symSize: 0x20 }
  - { offsetInCU: 0x1C566, offset: 0x47431, size: 0x8, addend: 0x0, symName: __ZNKSt3__16vectorIP4NodeNS_9allocatorIS2_EEE8capacityB8ue170006Ev, symObjAddr: 0xE0E0, symBinAddr: 0x10001D390, symSize: 0x30 }
  - { offsetInCU: 0x1C596, offset: 0x47461, size: 0x8, addend: 0x0, symName: __ZNSt3__116allocator_traitsINS_9allocatorIP4NodeEEE8max_sizeB8ue170006IS4_vEEmRKS4_, symObjAddr: 0xE110, symBinAddr: 0x10001D3C0, symSize: 0x20 }
  - { offsetInCU: 0x1C5C4, offset: 0x4748F, size: 0x8, addend: 0x0, symName: __ZNKSt3__16vectorIP4NodeNS_9allocatorIS2_EEE7__allocB8ue170006Ev, symObjAddr: 0xE130, symBinAddr: 0x10001D3E0, symSize: 0x20 }
  - { offsetInCU: 0x1C5EA, offset: 0x474B5, size: 0x8, addend: 0x0, symName: __ZNKSt3__19allocatorIP4NodeE8max_sizeB8ue170006Ev, symObjAddr: 0xE150, symBinAddr: 0x10001D400, symSize: 0x20 }
  - { offsetInCU: 0x1C610, offset: 0x474DB, size: 0x8, addend: 0x0, symName: __ZNKSt3__117__compressed_pairIPP4NodeNS_9allocatorIS2_EEE6secondB8ue170006Ev, symObjAddr: 0xE170, symBinAddr: 0x10001D420, symSize: 0x20 }
  - { offsetInCU: 0x1C636, offset: 0x47501, size: 0x8, addend: 0x0, symName: __ZNKSt3__122__compressed_pair_elemINS_9allocatorIP4NodeEELi1ELb1EE5__getB8ue170006Ev, symObjAddr: 0xE190, symBinAddr: 0x10001D440, symSize: 0x10 }
  - { offsetInCU: 0x1C65C, offset: 0x47527, size: 0x8, addend: 0x0, symName: __ZNKSt3__16vectorIP4NodeNS_9allocatorIS2_EEE9__end_capB8ue170006Ev, symObjAddr: 0xE1A0, symBinAddr: 0x10001D450, symSize: 0x20 }
  - { offsetInCU: 0x1C682, offset: 0x4754D, size: 0x8, addend: 0x0, symName: __ZNKSt3__117__compressed_pairIPP4NodeNS_9allocatorIS2_EEE5firstB8ue170006Ev, symObjAddr: 0xE1C0, symBinAddr: 0x10001D470, symSize: 0x20 }
  - { offsetInCU: 0x1C6A8, offset: 0x47573, size: 0x8, addend: 0x0, symName: __ZNKSt3__122__compressed_pair_elemIPP4NodeLi0ELb0EE5__getB8ue170006Ev, symObjAddr: 0xE1E0, symBinAddr: 0x10001D490, symSize: 0x10 }
  - { offsetInCU: 0x1C6CE, offset: 0x47599, size: 0x8, addend: 0x0, symName: __ZNSt3__114__split_bufferIP4NodeRNS_9allocatorIS2_EEEC2EmmS5_, symObjAddr: 0xE1F0, symBinAddr: 0x10001D4A0, symSize: 0xD0 }
  - { offsetInCU: 0x1C742, offset: 0x4760D, size: 0x8, addend: 0x0, symName: __ZNSt3__117__compressed_pairIPP4NodeRNS_9allocatorIS2_EEEC1B8ue170006IDnS6_EEOT_OT0_, symObjAddr: 0xE2C0, symBinAddr: 0x10001D570, symSize: 0x30 }
  - { offsetInCU: 0x1C79A, offset: 0x47665, size: 0x8, addend: 0x0, symName: __ZNSt3__114__split_bufferIP4NodeRNS_9allocatorIS2_EEE7__allocB8ue170006Ev, symObjAddr: 0xE330, symBinAddr: 0x10001D5E0, symSize: 0x20 }
  - { offsetInCU: 0x1C7C0, offset: 0x4768B, size: 0x8, addend: 0x0, symName: __ZNSt3__114__split_bufferIP4NodeRNS_9allocatorIS2_EEE9__end_capB8ue170006Ev, symObjAddr: 0xE350, symBinAddr: 0x10001D600, symSize: 0x20 }
  - { offsetInCU: 0x1C7E6, offset: 0x476B1, size: 0x8, addend: 0x0, symName: __ZNSt3__117__compressed_pairIPP4NodeRNS_9allocatorIS2_EEEC2B8ue170006IDnS6_EEOT_OT0_, symObjAddr: 0xE370, symBinAddr: 0x10001D620, symSize: 0x40 }
  - { offsetInCU: 0x1C83E, offset: 0x47709, size: 0x8, addend: 0x0, symName: __ZNSt3__122__compressed_pair_elemIRNS_9allocatorIP4NodeEELi1ELb0EEC2B8ue170006IS5_vEEOT_, symObjAddr: 0xE3B0, symBinAddr: 0x10001D660, symSize: 0x20 }
  - { offsetInCU: 0x1C880, offset: 0x4774B, size: 0x8, addend: 0x0, symName: __ZNSt3__19allocatorIP4NodeE8allocateB8ue170006Em, symObjAddr: 0xE3D0, symBinAddr: 0x10001D680, symSize: 0x50 }
  - { offsetInCU: 0x1C8B4, offset: 0x4777F, size: 0x8, addend: 0x0, symName: __ZNSt3__117__compressed_pairIPP4NodeRNS_9allocatorIS2_EEE6secondB8ue170006Ev, symObjAddr: 0xE420, symBinAddr: 0x10001D6D0, symSize: 0x20 }
  - { offsetInCU: 0x1C8DA, offset: 0x477A5, size: 0x8, addend: 0x0, symName: __ZNSt3__122__compressed_pair_elemIRNS_9allocatorIP4NodeEELi1ELb0EE5__getB8ue170006Ev, symObjAddr: 0xE440, symBinAddr: 0x10001D6F0, symSize: 0x20 }
  - { offsetInCU: 0x1C900, offset: 0x477CB, size: 0x8, addend: 0x0, symName: __ZNSt3__117__compressed_pairIPP4NodeRNS_9allocatorIS2_EEE5firstB8ue170006Ev, symObjAddr: 0xE460, symBinAddr: 0x10001D710, symSize: 0x20 }
  - { offsetInCU: 0x1C926, offset: 0x477F1, size: 0x8, addend: 0x0, symName: __ZNKSt3__16vectorIP4NodeNS_9allocatorIS2_EEE17__annotate_deleteB8ue170006Ev, symObjAddr: 0xE480, symBinAddr: 0x10001D730, symSize: 0xB0 }
  - { offsetInCU: 0x1C94C, offset: 0x47817, size: 0x8, addend: 0x0, symName: __ZNSt3__116reverse_iteratorIPP4NodeEC1B8ue170006ES3_, symObjAddr: 0xE5A0, symBinAddr: 0x10001D850, symSize: 0x30 }
  - { offsetInCU: 0x1C984, offset: 0x4784F, size: 0x8, addend: 0x0, symName: __ZNKSt3__116reverse_iteratorIPP4NodeE4baseB8ue170006Ev, symObjAddr: 0xE5D0, symBinAddr: 0x10001D880, symSize: 0x20 }
  - { offsetInCU: 0x1C9AA, offset: 0x47875, size: 0x8, addend: 0x0, symName: __ZNKSt3__16vectorIP4NodeNS_9allocatorIS2_EEE14__annotate_newB8ue170006Em, symObjAddr: 0xE630, symBinAddr: 0x10001D8E0, symSize: 0xB0 }
  - { offsetInCU: 0x1C9DF, offset: 0x478AA, size: 0x8, addend: 0x0, symName: __ZNKSt3__16vectorIP4NodeNS_9allocatorIS2_EEE31__annotate_contiguous_containerB8ue170006EPKvS7_S7_S7_, symObjAddr: 0xE6E0, symBinAddr: 0x10001D990, symSize: 0x20 }
  - { offsetInCU: 0x1CA31, offset: 0x478FC, size: 0x8, addend: 0x0, symName: __ZNKSt3__16vectorIP4NodeNS_9allocatorIS2_EEE4dataB8ue170006Ev, symObjAddr: 0xE700, symBinAddr: 0x10001D9B0, symSize: 0x20 }
  - { offsetInCU: 0x1CA7A, offset: 0x47945, size: 0x8, addend: 0x0, symName: __ZNKSt3__111__move_loopINS_17_ClassicAlgPolicyEEclB8ue170006INS_16reverse_iteratorIPP4NodeEES8_S8_EENS_4pairIT_T1_EESA_T0_SB_, symObjAddr: 0xEB60, symBinAddr: 0x10001DE10, symSize: 0xA0 }
  - { offsetInCU: 0x1CAEA, offset: 0x479B5, size: 0x8, addend: 0x0, symName: __ZNSt3__18_IterOpsINS_17_ClassicAlgPolicyEE11__iter_moveB8ue170006IRNS_16reverse_iteratorIPP4NodeEEEENS_9enable_ifIXsr12is_referenceIDTdeclsr3stdE7declvalIRT_EEEEE5valueEDTclsr3stdE4movedeclsr3stdE7declvalISC_EEEEE4typeEOSB_, symObjAddr: 0xED80, symBinAddr: 0x10001E030, symSize: 0x20 }
  - { offsetInCU: 0x1CB16, offset: 0x479E1, size: 0x8, addend: 0x0, symName: __ZNKSt3__116reverse_iteratorIPP4NodeEdeB8ue170006Ev, symObjAddr: 0xEDA0, symBinAddr: 0x10001E050, symSize: 0x30 }
  - { offsetInCU: 0x1CB4A, offset: 0x47A15, size: 0x8, addend: 0x0, symName: __ZNSt3__116reverse_iteratorIPP4NodeEppB8ue170006Ev, symObjAddr: 0xEDD0, symBinAddr: 0x10001E080, symSize: 0x20 }
  - { offsetInCU: 0x1CB70, offset: 0x47A3B, size: 0x8, addend: 0x0, symName: __ZNSt3__18_IterOpsINS_17_ClassicAlgPolicyEE25__validate_iter_referenceB8ue170006IRNS_16reverse_iteratorIPP4NodeEEEEvv, symObjAddr: 0xEDF0, symBinAddr: 0x10001E0A0, symSize: 0x10 }
  - { offsetInCU: 0x1CB8E, offset: 0x47A59, size: 0x8, addend: 0x0, symName: __ZNSt3__118__unwrap_iter_implINS_16reverse_iteratorIPP4NodeEELb0EE8__unwrapB8ue170006ES5_, symObjAddr: 0xEE00, symBinAddr: 0x10001E0B0, symSize: 0x20 }
  - { offsetInCU: 0x1CBB6, offset: 0x47A81, size: 0x8, addend: 0x0, symName: __ZNSt3__14pairINS_16reverse_iteratorIPP4NodeEES5_EC1B8ue170006IS5_S5_LPv0EEEOT_OT0_, symObjAddr: 0xEE20, symBinAddr: 0x10001E0D0, symSize: 0x30 }
  - { offsetInCU: 0x1CC14, offset: 0x47ADF, size: 0x8, addend: 0x0, symName: __ZNSt3__14pairINS_16reverse_iteratorIPP4NodeEES5_EC2B8ue170006IS5_S5_LPv0EEEOT_OT0_, symObjAddr: 0xEE50, symBinAddr: 0x10001E100, symSize: 0x40 }
  - { offsetInCU: 0x1CC72, offset: 0x47B3D, size: 0x8, addend: 0x0, symName: __ZNSt3__118__unwrap_iter_implINS_16reverse_iteratorIPP4NodeEELb0EE8__rewrapB8ue170006ES5_S5_, symObjAddr: 0xEE90, symBinAddr: 0x10001E140, symSize: 0x30 }
  - { offsetInCU: 0x1CCA0, offset: 0x47B6B, size: 0x8, addend: 0x0, symName: __ZNSt3__116reverse_iteratorIPP4NodeEC2B8ue170006ES3_, symObjAddr: 0xEEC0, symBinAddr: 0x10001E170, symSize: 0x30 }
  - { offsetInCU: 0x1CCD8, offset: 0x47BA3, size: 0x8, addend: 0x0, symName: __ZNSt3__114__split_bufferIP4NodeRNS_9allocatorIS2_EEED2Ev, symObjAddr: 0xEEF0, symBinAddr: 0x10001E1A0, symSize: 0x70 }
  - { offsetInCU: 0x1CD04, offset: 0x47BCF, size: 0x8, addend: 0x0, symName: __ZNSt3__114__split_bufferIP4NodeRNS_9allocatorIS2_EEE5clearB8ue170006Ev, symObjAddr: 0xEF60, symBinAddr: 0x10001E210, symSize: 0x20 }
  - { offsetInCU: 0x1CD2A, offset: 0x47BF5, size: 0x8, addend: 0x0, symName: __ZNSt3__116allocator_traitsINS_9allocatorIP4NodeEEE10deallocateB8ue170006ERS4_PS3_m, symObjAddr: 0xEF80, symBinAddr: 0x10001E230, symSize: 0x30 }
  - { offsetInCU: 0x1CD6C, offset: 0x47C37, size: 0x8, addend: 0x0, symName: __ZNKSt3__114__split_bufferIP4NodeRNS_9allocatorIS2_EEE8capacityB8ue170006Ev, symObjAddr: 0xEFB0, symBinAddr: 0x10001E260, symSize: 0x30 }
  - { offsetInCU: 0x1CD92, offset: 0x47C5D, size: 0x8, addend: 0x0, symName: __ZNSt3__114__split_bufferIP4NodeRNS_9allocatorIS2_EEE17__destruct_at_endB8ue170006EPS2_, symObjAddr: 0xEFE0, symBinAddr: 0x10001E290, symSize: 0x30 }
  - { offsetInCU: 0x1CDC6, offset: 0x47C91, size: 0x8, addend: 0x0, symName: __ZNSt3__114__split_bufferIP4NodeRNS_9allocatorIS2_EEE17__destruct_at_endB8ue170006EPS2_NS_17integral_constantIbLb0EEE, symObjAddr: 0xF010, symBinAddr: 0x10001E2C0, symSize: 0x80 }
  - { offsetInCU: 0x1CE07, offset: 0x47CD2, size: 0x8, addend: 0x0, symName: __ZNSt3__116allocator_traitsINS_9allocatorIP4NodeEEE7destroyB8ue170006IS3_vEEvRS4_PT_, symObjAddr: 0xF090, symBinAddr: 0x10001E340, symSize: 0x30 }
  - { offsetInCU: 0x1CE44, offset: 0x47D0F, size: 0x8, addend: 0x0, symName: __ZNSt3__19allocatorIP4NodeE7destroyB8ue170006EPS2_, symObjAddr: 0xF0C0, symBinAddr: 0x10001E370, symSize: 0x10 }
  - { offsetInCU: 0x1CE78, offset: 0x47D43, size: 0x8, addend: 0x0, symName: __ZNSt3__19allocatorIP4NodeE10deallocateB8ue170006EPS2_m, symObjAddr: 0xF0D0, symBinAddr: 0x10001E380, symSize: 0x40 }
  - { offsetInCU: 0x1CEBA, offset: 0x47D85, size: 0x8, addend: 0x0, symName: __ZNKSt3__114__split_bufferIP4NodeRNS_9allocatorIS2_EEE9__end_capB8ue170006Ev, symObjAddr: 0xF110, symBinAddr: 0x10001E3C0, symSize: 0x20 }
  - { offsetInCU: 0x1CEE0, offset: 0x47DAB, size: 0x8, addend: 0x0, symName: __ZNKSt3__117__compressed_pairIPP4NodeRNS_9allocatorIS2_EEE5firstB8ue170006Ev, symObjAddr: 0xF130, symBinAddr: 0x10001E3E0, symSize: 0x20 }
  - { offsetInCU: 0x1CF06, offset: 0x47DD1, size: 0x8, addend: 0x0, symName: __ZNSt3__19basic_iosIcNS_11char_traitsIcEEEC2B8ue170006Ev, symObjAddr: 0xF150, symBinAddr: 0x10001E400, symSize: 0x40 }
  - { offsetInCU: 0x1CF30, offset: 0x47DFB, size: 0x8, addend: 0x0, symName: __ZNSt3__113basic_ostreamIcNS_11char_traitsIcEEEC2B8ue170006EPNS_15basic_streambufIcS2_EE, symObjAddr: 0xF190, symBinAddr: 0x10001E440, symSize: 0x50 }
  - { offsetInCU: 0x1CF75, offset: 0x47E40, size: 0x8, addend: 0x0, symName: __ZNSt3__18ios_baseC2B8ue170006Ev, symObjAddr: 0xF1E0, symBinAddr: 0x10001E490, symSize: 0x20 }
  - { offsetInCU: 0x1CF9F, offset: 0x47E6A, size: 0x8, addend: 0x0, symName: __ZNSt3__19basic_iosIcNS_11char_traitsIcEEE4initB8ue170006EPNS_15basic_streambufIcS2_EE, symObjAddr: 0xF200, symBinAddr: 0x10001E4B0, symSize: 0x50 }
  - { offsetInCU: 0x1CFD6, offset: 0x47EA1, size: 0x8, addend: 0x0, symName: __ZNSt3__111char_traitsIcE3eofB8ue170006Ev, symObjAddr: 0xF250, symBinAddr: 0x10001E500, symSize: 0x10 }
  - { offsetInCU: 0x1D008, offset: 0x47ED3, size: 0x8, addend: 0x0, symName: __ZNKSt3__113basic_ostreamIcNS_11char_traitsIcEEE6sentrycvbB8ue170006Ev, symObjAddr: 0xF450, symBinAddr: 0x10001E700, symSize: 0x20 }
  - { offsetInCU: 0x1D02E, offset: 0x47EF9, size: 0x8, addend: 0x0, symName: __ZNSt3__119ostreambuf_iteratorIcNS_11char_traitsIcEEEC1B8ue170006ERNS_13basic_ostreamIcS2_EE, symObjAddr: 0xF690, symBinAddr: 0x10001E940, symSize: 0x30 }
  - { offsetInCU: 0x1D066, offset: 0x47F31, size: 0x8, addend: 0x0, symName: __ZNKSt3__18ios_base5flagsB8ue170006Ev, symObjAddr: 0xF6C0, symBinAddr: 0x10001E970, symSize: 0x20 }
  - { offsetInCU: 0x1D08E, offset: 0x47F59, size: 0x8, addend: 0x0, symName: __ZNKSt3__19basic_iosIcNS_11char_traitsIcEEE4fillB8ue170006Ev, symObjAddr: 0xF6E0, symBinAddr: 0x10001E990, symSize: 0x70 }
  - { offsetInCU: 0x1D0B6, offset: 0x47F81, size: 0x8, addend: 0x0, symName: __ZNKSt3__119ostreambuf_iteratorIcNS_11char_traitsIcEEE6failedB8ue170006Ev, symObjAddr: 0xF750, symBinAddr: 0x10001EA00, symSize: 0x20 }
  - { offsetInCU: 0x1D0DC, offset: 0x47FA7, size: 0x8, addend: 0x0, symName: __ZNSt3__19basic_iosIcNS_11char_traitsIcEEE8setstateB8ue170006Ej, symObjAddr: 0xF770, symBinAddr: 0x10001EA20, symSize: 0x30 }
  - { offsetInCU: 0x1D111, offset: 0x47FDC, size: 0x8, addend: 0x0, symName: __ZNKSt3__18ios_base5widthB8ue170006Ev, symObjAddr: 0xF7A0, symBinAddr: 0x10001EA50, symSize: 0x20 }
  - { offsetInCU: 0x1D139, offset: 0x48004, size: 0x8, addend: 0x0, symName: __ZNSt3__115basic_streambufIcNS_11char_traitsIcEEE5sputnB8ue170006EPKcl, symObjAddr: 0xF7C0, symBinAddr: 0x10001EA70, symSize: 0x30 }
  - { offsetInCU: 0x1D17B, offset: 0x48046, size: 0x8, addend: 0x0, symName: __ZNSt3__112basic_stringIcNS_11char_traitsIcEENS_9allocatorIcEEEC1B8ue170006Emc, symObjAddr: 0xF7F0, symBinAddr: 0x10001EAA0, symSize: 0x30 }
  - { offsetInCU: 0x1D1C3, offset: 0x4808E, size: 0x8, addend: 0x0, symName: __ZNSt3__18ios_base5widthB8ue170006El, symObjAddr: 0xF820, symBinAddr: 0x10001EAD0, symSize: 0x30 }
  - { offsetInCU: 0x1D209, offset: 0x480D4, size: 0x8, addend: 0x0, symName: __ZNSt3__112basic_stringIcNS_11char_traitsIcEENS_9allocatorIcEEEC2B8ue170006Emc, symObjAddr: 0xF850, symBinAddr: 0x10001EB00, symSize: 0x50 }
  - { offsetInCU: 0x1D251, offset: 0x4811C, size: 0x8, addend: 0x0, symName: __ZNSt3__119ostreambuf_iteratorIcNS_11char_traitsIcEEEC2B8ue170006ERNS_13basic_ostreamIcS2_EE, symObjAddr: 0xF8A0, symBinAddr: 0x10001EB50, symSize: 0x50 }
  - { offsetInCU: 0x1D289, offset: 0x48154, size: 0x8, addend: 0x0, symName: __ZNKSt3__19basic_iosIcNS_11char_traitsIcEEE5rdbufB8ue170006Ev, symObjAddr: 0xF8F0, symBinAddr: 0x10001EBA0, symSize: 0x20 }
  - { offsetInCU: 0x1D2B1, offset: 0x4817C, size: 0x8, addend: 0x0, symName: __ZNKSt3__18ios_base5rdbufB8ue170006Ev, symObjAddr: 0xF910, symBinAddr: 0x10001EBC0, symSize: 0x20 }
  - { offsetInCU: 0x1D2D7, offset: 0x481A2, size: 0x8, addend: 0x0, symName: __ZNSt3__111char_traitsIcE11eq_int_typeB8ue170006Eii, symObjAddr: 0xF930, symBinAddr: 0x10001EBE0, symSize: 0x20 }
  - { offsetInCU: 0x1D30A, offset: 0x481D5, size: 0x8, addend: 0x0, symName: __ZNKSt3__19basic_iosIcNS_11char_traitsIcEEE5widenB8ue170006Ec, symObjAddr: 0xF950, symBinAddr: 0x10001EC00, symSize: 0x80 }
  - { offsetInCU: 0x1D373, offset: 0x4823E, size: 0x8, addend: 0x0, symName: __ZNKSt3__15ctypeIcE5widenB8ue170006Ec, symObjAddr: 0xFA00, symBinAddr: 0x10001ECB0, symSize: 0x30 }
  - { offsetInCU: 0x1D3A8, offset: 0x48273, size: 0x8, addend: 0x0, symName: __ZNSt3__18ios_base8setstateB8ue170006Ej, symObjAddr: 0xFA30, symBinAddr: 0x10001ECE0, symSize: 0x30 }
  - { offsetInCU: 0x1D3DF, offset: 0x482AA, size: 0x8, addend: 0x0, symName: __ZNSt3__112__hash_tableINS_17__hash_value_typeINS_12basic_stringIcNS_11char_traitsIcEENS_9allocatorIcEEEEbEENS_22__unordered_map_hasherIS7_S8_NS_4hashIS7_EENS_8equal_toIS7_EELb1EEENS_21__unordered_map_equalIS7_S8_SD_SB_Lb1EEENS5_IS8_EEE5beginEv, symObjAddr: 0xFA60, symBinAddr: 0x10001ED10, symSize: 0x30 }
  - { offsetInCU: 0x1D407, offset: 0x482D2, size: 0x8, addend: 0x0, symName: __ZNSt3__119__hash_map_iteratorINS_15__hash_iteratorIPNS_11__hash_nodeINS_17__hash_value_typeINS_12basic_stringIcNS_11char_traitsIcEENS_9allocatorIcEEEEbEEPvEEEEEC1B8ue170006ESE_, symObjAddr: 0xFA90, symBinAddr: 0x10001ED40, symSize: 0x30 }
  - { offsetInCU: 0x1D440, offset: 0x4830B, size: 0x8, addend: 0x0, symName: __ZNSt3__119__hash_map_iteratorINS_15__hash_iteratorIPNS_11__hash_nodeINS_17__hash_value_typeINS_12basic_stringIcNS_11char_traitsIcEENS_9allocatorIcEEEEbEEPvEEEEEC2B8ue170006ESE_, symObjAddr: 0xFAC0, symBinAddr: 0x10001ED70, symSize: 0x20 }
  - { offsetInCU: 0x1D479, offset: 0x48344, size: 0x8, addend: 0x0, symName: __ZNSt3__112__hash_tableINS_17__hash_value_typeINS_12basic_stringIcNS_11char_traitsIcEENS_9allocatorIcEEEEbEENS_22__unordered_map_hasherIS7_S8_NS_4hashIS7_EENS_8equal_toIS7_EELb1EEENS_21__unordered_map_equalIS7_S8_SD_SB_Lb1EEENS5_IS8_EEE3endEv, symObjAddr: 0xFAE0, symBinAddr: 0x10001ED90, symSize: 0x30 }
  - { offsetInCU: 0x1D4A1, offset: 0x4836C, size: 0x8, addend: 0x0, symName: __ZNSt3__115__hash_iteratorIPNS_11__hash_nodeINS_17__hash_value_typeINS_12basic_stringIcNS_11char_traitsIcEENS_9allocatorIcEEEEbEEPvEEEppB8ue170006Ev, symObjAddr: 0xFB70, symBinAddr: 0x10001EE20, symSize: 0x20 }
  - { offsetInCU: 0x1D4C7, offset: 0x48392, size: 0x8, addend: 0x0, symName: __ZNSt3__114pointer_traitsIPNS_4pairIKNS_12basic_stringIcNS_11char_traitsIcEENS_9allocatorIcEEEEbEEE10pointer_toB8ue170006ERS9_, symObjAddr: 0xFB90, symBinAddr: 0x10001EE40, symSize: 0xE }
...
